(dp0
S'METTS MARK'
p1
(dp2
S'to_messages'
p3
I807
sS'from_this_person_to_poi_vs_from_messages'
p4
F0.034482758620689655
sS'exercised_stock_options_vs_total_stock_value'
p5
S'NaN'
p6
sS'deferral_payments'
p7
S'NaN'
p8
sS'expenses'
p9
I94299
sS'poi'
p10
I00
sS'deferred_income'
p11
g8
sS'email_address'
p12
S'mark.metts@enron.com'
p13
sS'long_term_incentive'
p14
g8
sS'restricted_stock_deferred'
p15
g8
sS'bonus_vs_salary'
p16
F1.6402943781644013
sS'shared_receipt_with_poi'
p17
I702
sS'loan_advances'
p18
g8
sS'from_messages'
p19
I29
sS'other'
p20
I1740
sS'director_fees'
p21
g8
sS'deferral_payments_vs_total_payments'
p22
g6
sS'bonus'
p23
I600000
sS'total_stock_value'
p24
I585062
sS'from_poi_to_this_person'
p25
I38
sS'long_term_incentive_vs_salary'
p26
g6
sS'from_this_person_to_poi'
p27
I1
sS'restricted_stock'
p28
I585062
sS'total_stock_value_vs_salary'
p29
F1.5994565157960348
sS'salary'
p30
I365788
sS'total_payments'
p31
I1061827
sS'exercised_stock_options'
p32
g8
sS'from_poi_to_this_person_vs_to_messages'
p33
F0.04708798017348203
sS'expenses_vs_salary'
p34
F0.25779686594420814
ssS'BAXTER JOHN C'
p35
(dp36
g3
g8
sS'from_this_person_to_poi_vs_from_messages'
p37
g6
sS'exercised_stock_options_vs_total_stock_value'
p38
F0.6288601858299968
sg7
I1295738
sg9
I11200
sg10
I00
sg11
I-1386055
sg12
g8
sg14
I1586055
sg15
g8
sS'bonus_vs_salary'
p39
F4.492665723206865
sg17
g8
sg18
g8
sg19
g8
sg20
I2660303
sg21
g8
sS'deferral_payments_vs_total_payments'
p40
F0.2299714447629475
sg23
I1200000
sg24
I10623258
sg25
g8
sS'long_term_incentive_vs_salary'
p41
F5.938012444684054
sg27
g8
sg28
I3942714
sS'total_stock_value_vs_salary'
p42
F39.77228923781926
sg30
I267102
sg31
I5634343
sg32
I6680544
sS'from_poi_to_this_person_vs_to_messages'
p43
g6
sS'expenses_vs_salary'
p44
F0.041931546749930736
ssS'ELLIOTT STEVEN'
p45
(dp46
g3
g8
sS'from_this_person_to_poi_vs_from_messages'
p47
g6
sS'exercised_stock_options_vs_total_stock_value'
p48
F0.7322260877246963
sg7
g8
sg9
I78552
sg10
I00
sg11
I-400729
sg12
S'steven.elliott@enron.com'
p49
sg14
g8
sg15
g8
sS'bonus_vs_salary'
p50
F2.047490069673162
sg17
g8
sg18
g8
sg19
g8
sg20
I12961
sg21
g8
sS'deferral_payments_vs_total_payments'
p51
g6
sg23
I350000
sg24
I6678735
sg25
g8
sS'long_term_incentive_vs_salary'
p52
g6
sg27
g8
sg28
I1788391
sS'total_stock_value_vs_salary'
p53
F39.07041025851024
sg30
I170941
sg31
I211725
sg32
I4890344
sS'from_poi_to_this_person_vs_to_messages'
p54
g6
sS'expenses_vs_salary'
p55
F0.45952697129418923
ssS'CORDES WILLIAM R'
p56
(dp57
g3
I764
sS'from_this_person_to_poi_vs_from_messages'
p58
F0.0
sS'exercised_stock_options_vs_total_stock_value'
p59
F0.6278746080900803
sg7
g8
sg9
g8
sg10
I00
sg11
g8
sg12
S'bill.cordes@enron.com'
p60
sg14
g8
sg15
g8
sS'bonus_vs_salary'
p61
g6
sg17
I58
sg18
g8
sg19
I12
sg20
g8
sg21
g8
sS'deferral_payments_vs_total_payments'
p62
g6
sg23
g8
sg24
I1038185
sg25
I10
sS'long_term_incentive_vs_salary'
p63
g6
sg27
I0
sg28
I386335
sS'total_stock_value_vs_salary'
p64
g6
sg30
g8
sg31
g8
sg32
I651850
sS'from_poi_to_this_person_vs_to_messages'
p65
F0.013089005235602094
sS'expenses_vs_salary'
p66
g6
ssS'HANNON KEVIN P'
p67
(dp68
g3
I1045
sS'from_this_person_to_poi_vs_from_messages'
p69
F0.65625
sS'exercised_stock_options_vs_total_stock_value'
p70
F0.8665224027607292
sg7
g8
sg9
I34039
sg10
I01
sg11
I-3117011
sg12
S'kevin.hannon@enron.com'
p71
sg14
I1617011
sg15
g8
sS'bonus_vs_salary'
p72
F6.165405498719651
sg17
I1035
sg18
g8
sg19
I32
sg20
I11350
sg21
g8
sS'deferral_payments_vs_total_payments'
p73
g6
sg23
I1500000
sg24
I6391065
sg25
I32
sS'long_term_incentive_vs_salary'
p74
F6.646352340593441
sg27
I21
sg28
I853064
sS'total_stock_value_vs_salary'
p75
F26.269004862449805
sg30
I243293
sg31
I288682
sg32
I5538001
sS'from_poi_to_this_person_vs_to_messages'
p76
F0.03062200956937799
sS'expenses_vs_salary'
p77
F0.1399094918472788
ssS'MORDAUNT KRISTINA M'
p78
(dp79
g3
g8
sS'from_this_person_to_poi_vs_from_messages'
p80
g6
sS'exercised_stock_options_vs_total_stock_value'
p81
g6
sg7
g8
sg9
I35018
sg10
I00
sg11
g8
sg12
S'kristina.mordaunt@enron.com'
p82
sg14
g8
sg15
g8
sS'bonus_vs_salary'
p83
F1.2168046335920448
sg17
g8
sg18
g8
sg19
g8
sg20
I1411
sg21
g8
sS'deferral_payments_vs_total_payments'
p84
g6
sg23
I325000
sg24
I208510
sg25
g8
sS'long_term_incentive_vs_salary'
p85
g6
sg27
g8
sg28
I208510
sS'total_stock_value_vs_salary'
p86
F0.7806644127700838
sg30
I267093
sg31
I628522
sg32
g8
sS'from_poi_to_this_person_vs_to_messages'
p87
g6
sS'expenses_vs_salary'
p88
F0.13110789125884992
ssS'MEYER ROCKFORD G'
p89
(dp90
g3
I232
sS'from_this_person_to_poi_vs_from_messages'
p91
F0.0
sS'exercised_stock_options_vs_total_stock_value'
p92
F0.5162704668925684
sg7
I1848227
sg9
g8
sg10
I00
sg11
g8
sg12
S'rockford.meyer@enron.com'
p93
sg14
g8
sg15
g8
sS'bonus_vs_salary'
p94
g6
sg17
I22
sg18
g8
sg19
I28
sg20
g8
sg21
g8
sS'deferral_payments_vs_total_payments'
p95
F1.0
sg23
g8
sg24
I955873
sg25
I0
sS'long_term_incentive_vs_salary'
p96
g6
sg27
I0
sg28
I462384
sS'total_stock_value_vs_salary'
p97
g6
sg30
g8
sg31
I1848227
sg32
I493489
sS'from_poi_to_this_person_vs_to_messages'
p98
F0.0
sS'expenses_vs_salary'
p99
g6
ssS'MCMAHON JEFFREY'
p100
(dp101
g3
I2355
sS'from_this_person_to_poi_vs_from_messages'
p102
F0.5416666666666666
sS'exercised_stock_options_vs_total_stock_value'
p103
F0.6639508556067727
sg7
g8
sg9
I137108
sg10
I00
sg11
g8
sg12
S'jeffrey.mcmahon@enron.com'
p104
sg14
I694862
sg15
g8
sS'bonus_vs_salary'
p105
F7.018528916339135
sg17
I2228
sg18
g8
sg19
I48
sg20
I297353
sg21
g8
sS'deferral_payments_vs_total_payments'
p106
g6
sg23
I2600000
sg24
I1662855
sg25
I58
sS'long_term_incentive_vs_salary'
p107
F1.875734246102017
sg27
I26
sg28
I558801
sS'total_stock_value_vs_salary'
p108
F4.488767654299659
sg30
I370448
sg31
I4099771
sg32
I1104054
sS'from_poi_to_this_person_vs_to_messages'
p109
F0.024628450106157114
sS'expenses_vs_salary'
p110
F0.3701140241005485
ssS'HORTON STANLEY C'
p111
(dp112
g3
I2350
sS'from_this_person_to_poi_vs_from_messages'
p113
F0.013979496738117428
sS'exercised_stock_options_vs_total_stock_value'
p114
F0.7180407538025821
sg7
I3131860
sg9
g8
sg10
I00
sg11
g8
sg12
S'stanley.horton@enron.com'
p115
sg14
g8
sg15
g8
sS'bonus_vs_salary'
p116
g6
sg17
I1074
sg18
g8
sg19
I1073
sg20
g8
sg21
g8
sS'deferral_payments_vs_total_payments'
p117
F1.0
sg23
g8
sg24
I7256648
sg25
I44
sS'long_term_incentive_vs_salary'
p118
g6
sg27
I15
sg28
I2046079
sS'total_stock_value_vs_salary'
p119
g6
sg30
g8
sg31
I3131860
sg32
I5210569
sS'from_poi_to_this_person_vs_to_messages'
p120
F0.01872340425531915
sS'expenses_vs_salary'
p121
g6
ssS'PIPER GREGORY F'
p122
(dp123
g3
I1238
sS'from_this_person_to_poi_vs_from_messages'
p124
F0.21621621621621623
sS'exercised_stock_options_vs_total_stock_value'
p125
F1.0
sg7
I1130036
sg9
I43057
sg10
I00
sg11
I-33333
sg12
S'greg.piper@enron.com'
p126
sg14
g8
sg15
I-409554
sS'bonus_vs_salary'
p127
F2.0295193590777862
sg17
I742
sg18
g8
sg19
I222
sg20
I778
sg21
g8
sS'deferral_payments_vs_total_payments'
p128
F0.6503321480016735
sg23
I400000
sg24
I880290
sg25
I61
sS'long_term_incentive_vs_salary'
p129
g6
sg27
I48
sg28
I409554
sS'total_stock_value_vs_salary'
p130
F4.466413991506461
sg30
I197091
sg31
I1737629
sg32
I880290
sS'from_poi_to_this_person_vs_to_messages'
p131
F0.049273021001615507
sS'expenses_vs_salary'
p132
F0.21846253760953063
ssS'HUMPHREY GENE E'
p133
(dp134
g3
I128
sS'from_this_person_to_poi_vs_from_messages'
p135
F1.0
sS'exercised_stock_options_vs_total_stock_value'
p136
F1.0
sg7
I2964506
sg9
I4994
sg10
I00
sg11
g8
sg12
S'gene.humphrey@enron.com'
p137
sg14
g8
sg15
g8
sS'bonus_vs_salary'
p138
g6
sg17
I119
sg18
g8
sg19
I17
sg20
g8
sg21
g8
sS'deferral_payments_vs_total_payments'
p139
F0.9562231632294956
sg23
g8
sg24
I2282768
sg25
I10
sS'long_term_incentive_vs_salary'
p140
g6
sg27
I17
sg28
g8
sS'total_stock_value_vs_salary'
p141
F17.462501147455708
sg30
I130724
sg31
I3100224
sg32
I2282768
sS'from_poi_to_this_person_vs_to_messages'
p142
F0.078125
sS'expenses_vs_salary'
p143
F0.038202625378660385
ssS'UMANOFF ADAM S'
p144
(dp145
g3
I111
sS'from_this_person_to_poi_vs_from_messages'
p146
F0.0
sS'exercised_stock_options_vs_total_stock_value'
p147
g6
sg7
g8
sg9
I53122
sg10
I00
sg11
g8
sg12
S'adam.umanoff@enron.com'
p148
sg14
g8
sg15
g8
sS'bonus_vs_salary'
p149
F2.7331256562100426
sg17
I41
sg18
g8
sg19
I18
sg20
g8
sg21
g8
sS'deferral_payments_vs_total_payments'
p150
g6
sg23
I788750
sg24
g8
sg25
I12
sS'long_term_incentive_vs_salary'
p151
g6
sg27
I0
sg28
g8
sS'total_stock_value_vs_salary'
p152
g6
sg30
I288589
sg31
I1130461
sg32
g8
sS'from_poi_to_this_person_vs_to_messages'
p153
F0.10810810810810811
sS'expenses_vs_salary'
p154
F0.18407493009089052
ssS'BLACHMAN JEREMY M'
p155
(dp156
g3
I2475
sS'from_this_person_to_poi_vs_from_messages'
p157
F0.14285714285714285
sS'exercised_stock_options_vs_total_stock_value'
p158
F0.8019173178925221
sg7
g8
sg9
I84208
sg10
I00
sg11
g8
sg12
S'jeremy.blachman@enron.com'
p159
sg14
I831809
sg15
g8
sS'bonus_vs_salary'
p160
F3.419890080709406
sg17
I2326
sg18
g8
sg19
I14
sg20
I272
sg21
g8
sS'deferral_payments_vs_total_payments'
p161
g6
sg23
I850000
sg24
I954354
sg25
I25
sS'long_term_incentive_vs_salary'
p162
F3.3467004095821298
sg27
I2
sg28
I189041
sS'total_stock_value_vs_salary'
p163
F3.839747974218052
sg30
I248546
sg31
I2014835
sg32
I765313
sS'from_poi_to_this_person_vs_to_messages'
p164
F0.010101010101010102
sS'expenses_vs_salary'
p165
F0.3388024751957384
ssS'SUNDE MARTIN'
p166
(dp167
g3
I2647
sS'from_this_person_to_poi_vs_from_messages'
p168
F0.34210526315789475
sS'exercised_stock_options_vs_total_stock_value'
p169
g6
sg7
g8
sg9
g8
sg10
I00
sg11
g8
sg12
S'marty.sunde@enron.com'
p170
sg14
I476451
sg15
g8
sS'bonus_vs_salary'
p171
F2.7185944090164127
sg17
I2565
sg18
g8
sg19
I38
sg20
I111122
sg21
g8
sS'deferral_payments_vs_total_payments'
p172
g6
sg23
I700000
sg24
I698920
sg25
I37
sS'long_term_incentive_vs_salary'
p173
F1.8503957496718269
sg27
I13
sg28
I698920
sS'total_stock_value_vs_salary'
p174
F2.71440000621393
sg30
I257486
sg31
I1545059
sg32
g8
sS'from_poi_to_this_person_vs_to_messages'
p175
F0.013978088401964487
sS'expenses_vs_salary'
p176
g6
ssS'GIBBS DANA R'
p177
(dp178
g3
I169
sS'from_this_person_to_poi_vs_from_messages'
p179
F0.0
sS'exercised_stock_options_vs_total_stock_value'
p180
F1.0
sg7
I504610
sg9
g8
sg10
I00
sg11
g8
sg12
S'dana.gibbs@enron.com'
p181
sg14
I461912
sg15
g8
sS'bonus_vs_salary'
p182
g6
sg17
I23
sg18
g8
sg19
I12
sg20
g8
sg21
g8
sS'deferral_payments_vs_total_payments'
p183
F0.5220884780687869
sg23
g8
sg24
I2218275
sg25
I0
sS'long_term_incentive_vs_salary'
p184
g6
sg27
I0
sg28
g8
sS'total_stock_value_vs_salary'
p185
g6
sg30
g8
sg31
I966522
sg32
I2218275
sS'from_poi_to_this_person_vs_to_messages'
p186
F0.0
sS'expenses_vs_salary'
p187
g6
ssS'LOWRY CHARLES P'
p188
(dp189
g3
g8
sS'from_this_person_to_poi_vs_from_messages'
p190
g6
sS'exercised_stock_options_vs_total_stock_value'
p191
F1.0
sg7
g8
sg9
g8
sg10
I00
sg11
g8
sg12
g8
sg14
g8
sg15
I-153686
sS'bonus_vs_salary'
p192
g6
sg17
g8
sg18
g8
sg19
g8
sg20
g8
sg21
g8
sS'deferral_payments_vs_total_payments'
p193
g6
sg23
g8
sg24
I372205
sg25
g8
sS'long_term_incentive_vs_salary'
p194
g6
sg27
g8
sg28
I153686
sS'total_stock_value_vs_salary'
p195
g6
sg30
g8
sg31
g8
sg32
I372205
sS'from_poi_to_this_person_vs_to_messages'
p196
g6
sS'expenses_vs_salary'
p197
g6
ssS'COLWELL WESLEY'
p198
(dp199
g3
I1758
sS'from_this_person_to_poi_vs_from_messages'
p200
F0.275
sS'exercised_stock_options_vs_total_stock_value'
p201
g6
sg7
I27610
sg9
I16514
sg10
I01
sg11
I-144062
sg12
S'wes.colwell@enron.com'
p202
sg14
g8
sg15
g8
sS'bonus_vs_salary'
p203
F4.158839960906905
sg17
I1132
sg18
g8
sg19
I40
sg20
I101740
sg21
g8
sS'deferral_payments_vs_total_payments'
p204
F0.01852592421615412
sg23
I1200000
sg24
I698242
sg25
I240
sS'long_term_incentive_vs_salary'
p205
g6
sg27
I11
sg28
I698242
sS'total_stock_value_vs_salary'
p206
F2.4198972766529656
sg30
I288542
sg31
I1490344
sg32
g8
sS'from_poi_to_this_person_vs_to_messages'
p207
F0.13651877133105803
sS'expenses_vs_salary'
p208
F0.05723256926201385
ssS'MULLER MARK S'
p209
(dp210
g3
I136
sS'from_this_person_to_poi_vs_from_messages'
p211
F0.0
sS'exercised_stock_options_vs_total_stock_value'
p212
F0.7455422176549636
sg7
I842924
sg9
g8
sg10
I00
sg11
I-719000
sg12
S's..muller@enron.com'
p213
sg14
I1725545
sg15
g8
sS'bonus_vs_salary'
p214
F4.3710809285765375
sg17
I114
sg18
g8
sg19
I16
sg20
I947
sg21
g8
sS'deferral_payments_vs_total_payments'
p215
F0.2632434643839766
sg23
I1100000
sg24
I1416848
sg25
I12
sS'long_term_incentive_vs_salary'
p216
F6.856815309909638
sg27
I0
sg28
I360528
sS'total_stock_value_vs_salary'
p217
F5.630142974083464
sg30
I251654
sg31
I3202070
sg32
I1056320
sS'from_poi_to_this_person_vs_to_messages'
p218
F0.08823529411764706
sS'expenses_vs_salary'
p219
g6
ssS'JACKSON CHARLENE R'
p220
(dp221
g3
I258
sS'from_this_person_to_poi_vs_from_messages'
p222
F0.3392857142857143
sS'exercised_stock_options_vs_total_stock_value'
p223
F0.25500079230021977
sg7
g8
sg9
I10181
sg10
I00
sg11
g8
sg12
S'charlene.jackson@enron.com'
p224
sg14
g8
sg15
g8
sS'bonus_vs_salary'
p225
F0.8663769502145149
sg17
I117
sg18
g8
sg19
I56
sg20
I2435
sg21
g8
sS'deferral_payments_vs_total_payments'
p226
g6
sg23
I250000
sg24
I725735
sg25
I25
sS'long_term_incentive_vs_salary'
p227
g6
sg27
I19
sg28
I540672
sS'total_stock_value_vs_salary'
p228
F2.515040303855724
sg30
I288558
sg31
I551174
sg32
I185063
sS'from_poi_to_this_person_vs_to_messages'
p229
F0.09689922480620156
sS'expenses_vs_salary'
p230
F0.0352823349205359
ssS'WESTFAHL RICHARD K'
p231
(dp232
g3
g8
sS'from_this_person_to_poi_vs_from_messages'
p233
g6
sS'exercised_stock_options_vs_total_stock_value'
p234
g6
sg7
g8
sg9
I51870
sg10
I00
sg11
I-10800
sg12
S'dick.westfahl@enron.com'
p235
sg14
I256191
sg15
g8
sS'bonus_vs_salary'
p236
g6
sg17
g8
sg18
g8
sg19
g8
sg20
I401130
sg21
g8
sS'deferral_payments_vs_total_payments'
p237
g6
sg23
g8
sg24
I384930
sg25
g8
sS'long_term_incentive_vs_salary'
p238
F4.019060617469879
sg27
g8
sg28
I384930
sS'total_stock_value_vs_salary'
p239
F6.038685993975903
sg30
I63744
sg31
I762135
sg32
g8
sS'from_poi_to_this_person_vs_to_messages'
p240
g6
sS'expenses_vs_salary'
p241
F0.8137236445783133
ssS'WALTERS GARETH W'
p242
(dp243
g3
g8
sS'from_this_person_to_poi_vs_from_messages'
p244
g6
sS'exercised_stock_options_vs_total_stock_value'
p245
F1.0
sg7
I53625
sg9
I33785
sg10
I00
sg11
g8
sg12
g8
sg14
g8
sg15
g8
sS'bonus_vs_salary'
p246
g6
sg17
g8
sg18
g8
sg19
g8
sg20
g8
sg21
g8
sS'deferral_payments_vs_total_payments'
p247
F0.6134881592495138
sg23
g8
sg24
I1030329
sg25
g8
sS'long_term_incentive_vs_salary'
p248
g6
sg27
g8
sg28
g8
sS'total_stock_value_vs_salary'
p249
g6
sg30
g8
sg31
I87410
sg32
I1030329
sS'from_poi_to_this_person_vs_to_messages'
p250
g6
sS'expenses_vs_salary'
p251
g6
ssS'WALLS JR ROBERT H'
p252
(dp253
g3
I671
sS'from_this_person_to_poi_vs_from_messages'
p254
F0.0
sS'exercised_stock_options_vs_total_stock_value'
p255
F0.7368276335790643
sg7
g8
sg9
I50936
sg10
I00
sg11
g8
sg12
S'rob.walls@enron.com'
p256
sg14
I540751
sg15
g8
sS'bonus_vs_salary'
p257
F2.380345626184922
sg17
I215
sg18
g8
sg19
I146
sg20
I2
sg21
g8
sS'deferral_payments_vs_total_payments'
p258
g6
sg23
I850000
sg24
I5898997
sg25
I17
sS'long_term_incentive_vs_salary'
p259
F1.5143226796530855
sg27
I0
sg28
I1552453
sS'total_stock_value_vs_salary'
p260
F16.5195902445035
sg30
I357091
sg31
I1798780
sg32
I4346544
sS'from_poi_to_this_person_vs_to_messages'
p261
F0.02533532041728763
sS'expenses_vs_salary'
p262
F0.1426415115474767
ssS'KITCHEN LOUISE'
p263
(dp264
g3
I8305
sS'from_this_person_to_poi_vs_from_messages'
p265
F0.11226851851851852
sS'exercised_stock_options_vs_total_stock_value'
p266
F0.14811849918577044
sg7
g8
sg9
I5774
sg10
I00
sg11
g8
sg12
S'louise.kitchen@enron.com'
p267
sg14
g8
sg15
g8
sS'bonus_vs_salary'
p268
F11.420487617981005
sg17
I3669
sg18
g8
sg19
I1728
sg20
I93925
sg21
g8
sS'deferral_payments_vs_total_payments'
p269
g6
sg23
I3100000
sg24
I547143
sg25
I251
sS'long_term_incentive_vs_salary'
p270
g6
sg27
I194
sg28
I466101
sS'total_stock_value_vs_salary'
p271
F2.0156902763758002
sg30
I271442
sg31
I3471141
sg32
I81042
sS'from_poi_to_this_person_vs_to_messages'
p272
F0.030222757375075255
sS'expenses_vs_salary'
p273
F0.021271579195555588
ssS'CHAN RONNIE'
p274
(dp275
g3
g8
sS'from_this_person_to_poi_vs_from_messages'
p276
g6
sS'exercised_stock_options_vs_total_stock_value'
p277
g6
sg7
g8
sg9
g8
sg10
I00
sg11
I-98784
sg12
g8
sg14
g8
sg15
I-32460
sS'bonus_vs_salary'
p278
g6
sg17
g8
sg18
g8
sg19
g8
sg20
g8
sg21
I98784
sS'deferral_payments_vs_total_payments'
p279
g6
sg23
g8
sg24
g8
sg25
g8
sS'long_term_incentive_vs_salary'
p280
g6
sg27
g8
sg28
I32460
sS'total_stock_value_vs_salary'
p281
g6
sg30
g8
sg31
g8
sg32
g8
sS'from_poi_to_this_person_vs_to_messages'
p282
g6
sS'expenses_vs_salary'
p283
g6
ssS'BELFER ROBERT'
p284
(dp285
g3
g8
sS'from_this_person_to_poi_vs_from_messages'
p286
g6
sS'exercised_stock_options_vs_total_stock_value'
p287
F-0.07450162157258522
sg7
I-102500
sg9
g8
sg10
I00
sg11
g8
sg12
g8
sg14
g8
sg15
I44093
sS'bonus_vs_salary'
p288
g6
sg17
g8
sg18
g8
sg19
g8
sg20
g8
sg21
I3285
sS'deferral_payments_vs_total_payments'
p289
F-1.0
sg23
g8
sg24
I-44093
sg25
g8
sS'long_term_incentive_vs_salary'
p290
g6
sg27
g8
sg28
g8
sS'total_stock_value_vs_salary'
p291
g6
sg30
g8
sg31
I102500
sg32
I3285
sS'from_poi_to_this_person_vs_to_messages'
p292
g6
sS'expenses_vs_salary'
p293
g6
ssS'SHANKMAN JEFFREY A'
p294
(dp295
g3
I3221
sS'from_this_person_to_poi_vs_from_messages'
p296
F0.030958597538232
sS'exercised_stock_options_vs_total_stock_value'
p297
F0.6958849633331483
sg7
g8
sg9
I178979
sg10
I00
sg11
g8
sg12
S'jeffrey.shankman@enron.com'
p298
sg14
I554422
sg15
g8
sS'bonus_vs_salary'
p299
F6.576567689322943
sg17
I1730
sg18
g8
sg19
I2681
sg20
I1191
sg21
g8
sS'deferral_payments_vs_total_payments'
p300
g6
sg23
I2000000
sg24
I2072035
sg25
I94
sS'long_term_incentive_vs_salary'
p301
F1.8230969057249022
sg27
I83
sg28
I630137
sS'total_stock_value_vs_salary'
p302
F6.813439216073132
sg30
I304110
sg31
I3038702
sg32
I1441898
sS'from_poi_to_this_person_vs_to_messages'
p303
F0.029183483390251473
sS'expenses_vs_salary'
p304
F0.5885337542336655
ssS'WODRASKA JOHN'
p305
(dp306
g3
g8
sS'from_this_person_to_poi_vs_from_messages'
p307
g6
sS'exercised_stock_options_vs_total_stock_value'
p308
g6
sg7
g8
sg9
g8
sg10
I00
sg11
g8
sg12
S'john.wodraska@enron.com'
p309
sg14
g8
sg15
g8
sS'bonus_vs_salary'
p310
g6
sg17
g8
sg18
g8
sg19
g8
sg20
I189583
sg21
g8
sS'deferral_payments_vs_total_payments'
p311
g6
sg23
g8
sg24
g8
sg25
g8
sS'long_term_incentive_vs_salary'
p312
g6
sg27
g8
sg28
g8
sS'total_stock_value_vs_salary'
p313
g6
sg30
g8
sg31
I189583
sg32
g8
sS'from_poi_to_this_person_vs_to_messages'
p314
g6
sS'expenses_vs_salary'
p315
g6
ssS'BERGSIEKER RICHARD P'
p316
(dp317
g3
I383
sS'from_this_person_to_poi_vs_from_messages'
p318
F0.0
sS'exercised_stock_options_vs_total_stock_value'
p319
g6
sg7
g8
sg9
I59175
sg10
I00
sg11
I-485813
sg12
S'rick.bergsieker@enron.com'
p320
sg14
I180250
sg15
g8
sS'bonus_vs_salary'
p321
F1.3303391832781686
sg17
I233
sg18
g8
sg19
I59
sg20
I427316
sg21
g8
sS'deferral_payments_vs_total_payments'
p322
g6
sg23
I250000
sg24
I659249
sg25
I4
sS'long_term_incentive_vs_salary'
p323
F0.9591745511435595
sg27
I0
sg28
I659249
sS'total_stock_value_vs_salary'
p324
F3.5080991049477976
sg30
I187922
sg31
I618850
sg32
g8
sS'from_poi_to_this_person_vs_to_messages'
p325
F0.010443864229765013
sS'expenses_vs_salary'
p326
F0.3148912846819425
ssS'URQUHART JOHN A'
p327
(dp328
g3
g8
sS'from_this_person_to_poi_vs_from_messages'
p329
g6
sS'exercised_stock_options_vs_total_stock_value'
p330
g6
sg7
g8
sg9
I228656
sg10
I00
sg11
I-36666
sg12
g8
sg14
g8
sg15
g8
sS'bonus_vs_salary'
p331
g6
sg17
g8
sg18
g8
sg19
g8
sg20
g8
sg21
I36666
sS'deferral_payments_vs_total_payments'
p332
g6
sg23
g8
sg24
g8
sg25
g8
sS'long_term_incentive_vs_salary'
p333
g6
sg27
g8
sg28
g8
sS'total_stock_value_vs_salary'
p334
g6
sg30
g8
sg31
I228656
sg32
g8
sS'from_poi_to_this_person_vs_to_messages'
p335
g6
sS'expenses_vs_salary'
p336
g6
ssS'BIBI PHILIPPE A'
p337
(dp338
g3
I1607
sS'from_this_person_to_poi_vs_from_messages'
p339
F0.2
sS'exercised_stock_options_vs_total_stock_value'
p340
F0.7949459165122768
sg7
g8
sg9
I38559
sg10
I00
sg11
g8
sg12
S'philippe.bibi@enron.com'
p341
sg14
I369721
sg15
g8
sS'bonus_vs_salary'
p342
F4.681100058513751
sg17
I1336
sg18
g8
sg19
I40
sg20
I425688
sg21
g8
sS'deferral_payments_vs_total_payments'
p343
g6
sg23
I1000000
sg24
I1843816
sg25
I23
sS'long_term_incentive_vs_salary'
p344
F1.7307009947337624
sg27
I8
sg28
I378082
sS'total_stock_value_vs_salary'
p345
F8.63108718548859
sg30
I213625
sg31
I2047593
sg32
I1465734
sS'from_poi_to_this_person_vs_to_messages'
p346
F0.01431238332296204
sS'expenses_vs_salary'
p347
F0.1804985371562317
ssS'RIEKER PAULA H'
p348
(dp349
g3
I1328
sS'from_this_person_to_poi_vs_from_messages'
p350
F0.5853658536585366
sS'exercised_stock_options_vs_total_stock_value'
p351
F0.8521804566918219
sg7
I214678
sg9
I33271
sg10
I01
sg11
I-100000
sg12
S'paula.rieker@enron.com'
p352
sg14
g8
sg15
g8
sS'bonus_vs_salary'
p353
F2.8089774920646384
sg17
I1258
sg18
g8
sg19
I82
sg20
I1950
sg21
g8
sS'deferral_payments_vs_total_payments'
p354
F0.19532162678555182
sg23
I700000
sg24
I1918887
sg25
I35
sS'long_term_incentive_vs_salary'
p355
g6
sg27
I48
sg28
I283649
sS'total_stock_value_vs_salary'
p356
F7.700157704022055
sg30
I249201
sg31
I1099100
sg32
I1635238
sS'from_poi_to_this_person_vs_to_messages'
p357
F0.02635542168674699
sS'expenses_vs_salary'
p358
F0.13351070019783226
ssS'WHALEY DAVID A'
p359
(dp360
g3
g8
sS'from_this_person_to_poi_vs_from_messages'
p361
g6
sS'exercised_stock_options_vs_total_stock_value'
p362
F1.0
sg7
g8
sg9
g8
sg10
I00
sg11
g8
sg12
g8
sg14
g8
sg15
g8
sS'bonus_vs_salary'
p363
g6
sg17
g8
sg18
g8
sg19
g8
sg20
g8
sg21
g8
sS'deferral_payments_vs_total_payments'
p364
g6
sg23
g8
sg24
I98718
sg25
g8
sS'long_term_incentive_vs_salary'
p365
g6
sg27
g8
sg28
g8
sS'total_stock_value_vs_salary'
p366
g6
sg30
g8
sg31
g8
sg32
I98718
sS'from_poi_to_this_person_vs_to_messages'
p367
g6
sS'expenses_vs_salary'
p368
g6
ssS'BECK SALLY W'
p369
(dp370
g3
I7315
sS'from_this_person_to_poi_vs_from_messages'
p371
F0.08887865530739121
sS'exercised_stock_options_vs_total_stock_value'
p372
g6
sg7
g8
sg9
I37172
sg10
I00
sg11
g8
sg12
S'sally.beck@enron.com'
p373
sg14
g8
sg15
g8
sS'bonus_vs_salary'
p374
F3.025980201443825
sg17
I2639
sg18
g8
sg19
I4343
sg20
I566
sg21
g8
sS'deferral_payments_vs_total_payments'
p375
g6
sg23
I700000
sg24
I126027
sg25
I144
sS'long_term_incentive_vs_salary'
p376
g6
sg27
I386
sg28
I126027
sS'total_stock_value_vs_salary'
p377
F0.544793152639087
sg30
I231330
sg31
I969068
sg32
g8
sS'from_poi_to_this_person_vs_to_messages'
p378
F0.01968557758031442
sS'expenses_vs_salary'
p379
F0.1606881943543855
ssS'HAUG DAVID L'
p380
(dp381
g3
I573
sS'from_this_person_to_poi_vs_from_messages'
p382
F0.3684210526315789
sS'exercised_stock_options_vs_total_stock_value'
p383
g6
sg7
g8
sg9
I475
sg10
I00
sg11
g8
sg12
S'david.haug@enron.com'
p384
sg14
g8
sg15
g8
sS'bonus_vs_salary'
p385
g6
sg17
I471
sg18
g8
sg19
I19
sg20
g8
sg21
g8
sS'deferral_payments_vs_total_payments'
p386
g6
sg23
g8
sg24
I2217299
sg25
I4
sS'long_term_incentive_vs_salary'
p387
g6
sg27
I7
sg28
I2217299
sS'total_stock_value_vs_salary'
p388
g6
sg30
g8
sg31
I475
sg32
g8
sS'from_poi_to_this_person_vs_to_messages'
p389
F0.006980802792321117
sS'expenses_vs_salary'
p390
g6
ssS'ECHOLS JOHN B'
p391
(dp392
g3
g8
sS'from_this_person_to_poi_vs_from_messages'
p393
g6
sS'exercised_stock_options_vs_total_stock_value'
p394
F0.5961081966140735
sg7
g8
sg9
I21530
sg10
I00
sg11
g8
sg12
S'john.echols@enron.com'
p395
sg14
I2234774
sg15
g8
sS'bonus_vs_salary'
p396
F1.0974237976350518
sg17
g8
sg18
g8
sg19
g8
sg20
I53775
sg21
g8
sS'deferral_payments_vs_total_payments'
p397
g6
sg23
I200000
sg24
I1008941
sg25
g8
sS'long_term_incentive_vs_salary'
p398
F12.262470849680374
sg27
g8
sg28
I407503
sS'total_stock_value_vs_salary'
p399
F5.536179319048534
sg30
I182245
sg31
I2692324
sg32
I601438
sS'from_poi_to_this_person_vs_to_messages'
p400
g6
sS'expenses_vs_salary'
p401
F0.11813767181541332
ssS'MENDELSOHN JOHN'
p402
(dp403
g3
g8
sS'from_this_person_to_poi_vs_from_messages'
p404
g6
sS'exercised_stock_options_vs_total_stock_value'
p405
g6
sg7
g8
sg9
I148
sg10
I00
sg11
I-103750
sg12
g8
sg14
g8
sg15
g8
sS'bonus_vs_salary'
p406
g6
sg17
g8
sg18
g8
sg19
g8
sg20
g8
sg21
I103750
sS'deferral_payments_vs_total_payments'
p407
g6
sg23
g8
sg24
g8
sg25
g8
sS'long_term_incentive_vs_salary'
p408
g6
sg27
g8
sg28
g8
sS'total_stock_value_vs_salary'
p409
g6
sg30
g8
sg31
I148
sg32
g8
sS'from_poi_to_this_person_vs_to_messages'
p410
g6
sS'expenses_vs_salary'
p411
g6
ssS'HICKERSON GARY J'
p412
(dp413
g3
I1320
sS'from_this_person_to_poi_vs_from_messages'
p414
F0.037037037037037035
sS'exercised_stock_options_vs_total_stock_value'
p415
g6
sg7
g8
sg9
I98849
sg10
I00
sg11
g8
sg12
S'gary.hickerson@enron.com'
p416
sg14
I69223
sg15
g8
sS'bonus_vs_salary'
p417
F8.02689481934765
sg17
I900
sg18
g8
sg19
I27
sg20
I1936
sg21
g8
sS'deferral_payments_vs_total_payments'
p418
g6
sg23
I1700000
sg24
I441096
sg25
I40
sS'long_term_incentive_vs_salary'
p419
F0.3268504353410014
sg27
I1
sg28
I441096
sS'total_stock_value_vs_salary'
p420
F2.08272423366763
sg30
I211788
sg31
I2081796
sg32
g8
sS'from_poi_to_this_person_vs_to_messages'
p421
F0.030303030303030304
sS'expenses_vs_salary'
p422
F0.4667356035280564
ssS'CLINE KENNETH W'
p423
(dp424
g3
g8
sS'from_this_person_to_poi_vs_from_messages'
p425
g6
sS'exercised_stock_options_vs_total_stock_value'
p426
g6
sg7
g8
sg9
g8
sg10
I00
sg11
g8
sg12
g8
sg14
g8
sg15
I-472568
sS'bonus_vs_salary'
p427
g6
sg17
g8
sg18
g8
sg19
g8
sg20
g8
sg21
g8
sS'deferral_payments_vs_total_payments'
p428
g6
sg23
g8
sg24
I189518
sg25
g8
sS'long_term_incentive_vs_salary'
p429
g6
sg27
g8
sg28
I662086
sS'total_stock_value_vs_salary'
p430
g6
sg30
g8
sg31
g8
sg32
g8
sS'from_poi_to_this_person_vs_to_messages'
p431
g6
sS'expenses_vs_salary'
p432
g6
ssS'LEWIS RICHARD'
p433
(dp434
g3
I952
sS'from_this_person_to_poi_vs_from_messages'
p435
F0.0
sS'exercised_stock_options_vs_total_stock_value'
p436
F1.0
sg7
g8
sg9
g8
sg10
I00
sg11
g8
sg12
S'richard.lewis@enron.com'
p437
sg14
g8
sg15
g8
sS'bonus_vs_salary'
p438
g6
sg17
I739
sg18
g8
sg19
I26
sg20
g8
sg21
g8
sS'deferral_payments_vs_total_payments'
p439
g6
sg23
g8
sg24
I850477
sg25
I10
sS'long_term_incentive_vs_salary'
p440
g6
sg27
I0
sg28
g8
sS'total_stock_value_vs_salary'
p441
g6
sg30
g8
sg31
g8
sg32
I850477
sS'from_poi_to_this_person_vs_to_messages'
p442
F0.01050420168067227
sS'expenses_vs_salary'
p443
g6
ssS'HAYES ROBERT E'
p444
(dp445
g3
I504
sS'from_this_person_to_poi_vs_from_messages'
p446
F0.0
sS'exercised_stock_options_vs_total_stock_value'
p447
g6
sg7
I7961
sg9
g8
sg10
I00
sg11
g8
sg12
S'robert.hayes@enron.com'
p448
sg14
g8
sg15
g8
sS'bonus_vs_salary'
p449
g6
sg17
I50
sg18
g8
sg19
I12
sg20
g8
sg21
g8
sS'deferral_payments_vs_total_payments'
p450
F1.0
sg23
g8
sg24
I151418
sg25
I16
sS'long_term_incentive_vs_salary'
p451
g6
sg27
I0
sg28
I151418
sS'total_stock_value_vs_salary'
p452
g6
sg30
g8
sg31
I7961
sg32
g8
sS'from_poi_to_this_person_vs_to_messages'
p453
F0.031746031746031744
sS'expenses_vs_salary'
p454
g6
ssS'MCCARTY DANNY J'
p455
(dp456
g3
I1433
sS'from_this_person_to_poi_vs_from_messages'
p457
F0.009302325581395349
sS'exercised_stock_options_vs_total_stock_value'
p458
F0.8754089633971995
sg7
g8
sg9
g8
sg10
I00
sg11
g8
sg12
S'danny.mccarty@enron.com'
p459
sg14
g8
sg15
g8
sS'bonus_vs_salary'
p460
g6
sg17
I508
sg18
g8
sg19
I215
sg20
g8
sg21
g8
sS'deferral_payments_vs_total_payments'
p461
g6
sg23
g8
sg24
I758931
sg25
I25
sS'long_term_incentive_vs_salary'
p462
g6
sg27
I2
sg28
I94556
sS'total_stock_value_vs_salary'
p463
g6
sg30
g8
sg31
g8
sg32
I664375
sS'from_poi_to_this_person_vs_to_messages'
p464
F0.017445917655268667
sS'expenses_vs_salary'
p465
g6
ssS'KOPPER MICHAEL J'
p466
(dp467
g3
g8
sS'from_this_person_to_poi_vs_from_messages'
p468
g6
sS'exercised_stock_options_vs_total_stock_value'
p469
g6
sg7
g8
sg9
I118134
sg10
I01
sg11
g8
sg12
S'michael.kopper@enron.com'
p470
sg14
I602671
sg15
g8
sS'bonus_vs_salary'
p471
F3.5665723011078665
sg17
g8
sg18
g8
sg19
g8
sg20
I907502
sg21
g8
sS'deferral_payments_vs_total_payments'
p472
g6
sg23
I800000
sg24
I985032
sg25
g8
sS'long_term_incentive_vs_salary'
p473
F2.6868371191012237
sg27
g8
sg28
I985032
sS'total_stock_value_vs_salary'
p474
F4.391484808631105
sg30
I224305
sg31
I2652612
sg32
g8
sS'from_poi_to_this_person_vs_to_messages'
p475
g6
sS'expenses_vs_salary'
p476
F0.5266668152738458
ssS'LEFF DANIEL P'
p477
(dp478
g3
I2822
sS'from_this_person_to_poi_vs_from_messages'
p479
F0.2222222222222222
sS'exercised_stock_options_vs_total_stock_value'
p480
g6
sg7
g8
sg9
g8
sg10
I00
sg11
g8
sg12
S'dan.leff@enron.com'
p481
sg14
I1387399
sg15
g8
sS'bonus_vs_salary'
p482
F3.653021414011529
sg17
I2672
sg18
g8
sg19
I63
sg20
I3083
sg21
g8
sS'deferral_payments_vs_total_payments'
p483
g6
sg23
I1000000
sg24
I360528
sg25
I67
sS'long_term_incentive_vs_salary'
p484
F5.068198256778182
sg27
I14
sg28
I360528
sS'total_stock_value_vs_salary'
p485
F1.3170165043507485
sg30
I273746
sg31
I2664228
sg32
g8
sS'from_poi_to_this_person_vs_to_messages'
p486
F0.02374202693125443
sS'expenses_vs_salary'
p487
g6
ssS'LAVORATO JOHN J'
p488
(dp489
g3
I7259
sS'from_this_person_to_poi_vs_from_messages'
p490
F0.15899419729206962
sS'exercised_stock_options_vs_total_stock_value'
p491
F0.80489241252034
sg7
g8
sg9
I49537
sg10
I00
sg11
g8
sg12
S'john.lavorato@enron.com'
p492
sg14
I2035380
sg15
g8
sS'bonus_vs_salary'
p493
F23.57878852184575
sg17
I3962
sg18
g8
sg19
I2585
sg20
I1552
sg21
g8
sS'deferral_payments_vs_total_payments'
p494
g6
sg23
I8000000
sg24
I5167144
sg25
I528
sS'long_term_incentive_vs_salary'
p495
F5.9989743226993
sg27
I411
sg28
I1008149
sS'total_stock_value_vs_salary'
p496
F15.229374454740515
sg30
I339288
sg31
I10425757
sg32
I4158995
sS'from_poi_to_this_person_vs_to_messages'
p497
F0.07273729163796666
sS'expenses_vs_salary'
p498
F0.1460028058758341
ssS'BERBERIAN DAVID'
p499
(dp500
g3
g8
sS'from_this_person_to_poi_vs_from_messages'
p501
g6
sS'exercised_stock_options_vs_total_stock_value'
p502
F0.6514218708895034
sg7
g8
sg9
I11892
sg10
I00
sg11
g8
sg12
S'david.berberian@enron.com'
p503
sg14
g8
sg15
g8
sS'bonus_vs_salary'
p504
g6
sg17
g8
sg18
g8
sg19
g8
sg20
g8
sg21
g8
sS'deferral_payments_vs_total_payments'
p505
g6
sg23
g8
sg24
I2493616
sg25
g8
sS'long_term_incentive_vs_salary'
p506
g6
sg27
g8
sg28
I869220
sS'total_stock_value_vs_salary'
p507
F11.513496043069138
sg30
I216582
sg31
I228474
sg32
I1624396
sS'from_poi_to_this_person_vs_to_messages'
p508
g6
sS'expenses_vs_salary'
p509
F0.054907610050696734
ssS'DETMERING TIMOTHY J'
p510
(dp511
g3
g8
sS'from_this_person_to_poi_vs_from_messages'
p512
g6
sS'exercised_stock_options_vs_total_stock_value'
p513
F1.0
sg7
I875307
sg9
I52255
sg10
I00
sg11
I-775241
sg12
S'timothy.detmering@enron.com'
p514
sg14
I415657
sg15
I-315068
sS'bonus_vs_salary'
p515
F2.019002375296912
sg17
g8
sg18
g8
sg19
g8
sg20
I1105
sg21
g8
sS'deferral_payments_vs_total_payments'
p516
F0.7266473128045141
sg23
I425000
sg24
I2027865
sg25
g8
sS'long_term_incentive_vs_salary'
p517
F1.9746175771971497
sg27
g8
sg28
I315068
sS'total_stock_value_vs_salary'
p518
F9.63356294536817
sg30
I210500
sg31
I1204583
sg32
I2027865
sS'from_poi_to_this_person_vs_to_messages'
p519
g6
sS'expenses_vs_salary'
p520
F0.24824228028503562
ssS'WAKEHAM JOHN'
p521
(dp522
g3
g8
sS'from_this_person_to_poi_vs_from_messages'
p523
g6
sS'exercised_stock_options_vs_total_stock_value'
p524
g6
sg7
g8
sg9
I103773
sg10
I00
sg11
g8
sg12
g8
sg14
g8
sg15
g8
sS'bonus_vs_salary'
p525
g6
sg17
g8
sg18
g8
sg19
g8
sg20
g8
sg21
I109298
sS'deferral_payments_vs_total_payments'
p526
g6
sg23
g8
sg24
g8
sg25
g8
sS'long_term_incentive_vs_salary'
p527
g6
sg27
g8
sg28
g8
sS'total_stock_value_vs_salary'
p528
g6
sg30
g8
sg31
I213071
sg32
g8
sS'from_poi_to_this_person_vs_to_messages'
p529
g6
sS'expenses_vs_salary'
p530
g6
ssS'POWERS WILLIAM'
p531
(dp532
g3
I653
sS'from_this_person_to_poi_vs_from_messages'
p533
F0.0
sS'exercised_stock_options_vs_total_stock_value'
p534
g6
sg7
g8
sg9
g8
sg10
I00
sg11
I-17500
sg12
S'ken.powers@enron.com'
p535
sg14
g8
sg15
g8
sS'bonus_vs_salary'
p536
g6
sg17
I12
sg18
g8
sg19
I26
sg20
g8
sg21
I17500
sS'deferral_payments_vs_total_payments'
p537
g6
sg23
g8
sg24
g8
sg25
I0
sS'long_term_incentive_vs_salary'
p538
g6
sg27
I0
sg28
g8
sS'total_stock_value_vs_salary'
p539
g6
sg30
g8
sg31
g8
sg32
g8
sS'from_poi_to_this_person_vs_to_messages'
p540
F0.0
sS'expenses_vs_salary'
p541
g6
ssS'GOLD JOSEPH'
p542
(dp543
g3
g8
sS'from_this_person_to_poi_vs_from_messages'
p544
g6
sS'exercised_stock_options_vs_total_stock_value'
p545
F0.4973900737342627
sg7
g8
sg9
g8
sg10
I00
sg11
g8
sg12
S'joe.gold@enron.com'
p546
sg14
I304805
sg15
g8
sS'bonus_vs_salary'
p547
F2.748460861917326
sg17
g8
sg18
g8
sg19
g8
sg20
I819288
sg21
g8
sS'deferral_payments_vs_total_payments'
p548
g6
sg23
I750000
sg24
I877611
sg25
g8
sS'long_term_incentive_vs_salary'
p549
F1.1169928173556143
sg27
g8
sg28
I441096
sS'total_stock_value_vs_salary'
p550
F3.2161059806508354
sg30
I272880
sg31
I2146973
sg32
I436515
sS'from_poi_to_this_person_vs_to_messages'
p551
g6
sS'expenses_vs_salary'
p552
g6
ssS'BANNANTINE JAMES M'
p553
(dp554
g3
I566
sS'from_this_person_to_poi_vs_from_messages'
p555
F0.0
sS'exercised_stock_options_vs_total_stock_value'
p556
F0.7716538631639595
sg7
g8
sg9
I56301
sg10
I00
sg11
I-5104
sg12
S'james.bannantine@enron.com'
p557
sg14
g8
sg15
I-560222
sS'bonus_vs_salary'
p558
g6
sg17
I465
sg18
g8
sg19
I29
sg20
I864523
sg21
g8
sS'deferral_payments_vs_total_payments'
p559
g6
sg23
g8
sg24
I5243487
sg25
I39
sS'long_term_incentive_vs_salary'
p560
g6
sg27
I0
sg28
I1757552
sS'total_stock_value_vs_salary'
p561
F10992.635220125787
sg30
I477
sg31
I916197
sg32
I4046157
sS'from_poi_to_this_person_vs_to_messages'
p562
F0.06890459363957598
sS'expenses_vs_salary'
p563
F118.03144654088051
ssS'DUNCAN JOHN H'
p564
(dp565
g3
g8
sS'from_this_person_to_poi_vs_from_messages'
p566
g6
sS'exercised_stock_options_vs_total_stock_value'
p567
F1.0
sg7
g8
sg9
g8
sg10
I00
sg11
I-25000
sg12
g8
sg14
g8
sg15
g8
sS'bonus_vs_salary'
p568
g6
sg17
g8
sg18
g8
sg19
g8
sg20
g8
sg21
I102492
sS'deferral_payments_vs_total_payments'
p569
g6
sg23
g8
sg24
I371750
sg25
g8
sS'long_term_incentive_vs_salary'
p570
g6
sg27
g8
sg28
g8
sS'total_stock_value_vs_salary'
p571
g6
sg30
g8
sg31
I77492
sg32
I371750
sS'from_poi_to_this_person_vs_to_messages'
p572
g6
sS'expenses_vs_salary'
p573
g6
ssS'SHAPIRO RICHARD S'
p574
(dp575
g3
I15149
sS'from_this_person_to_poi_vs_from_messages'
p576
F0.053497942386831275
sS'exercised_stock_options_vs_total_stock_value'
p577
F0.6158423345062467
sg7
g8
sg9
I137767
sg10
I00
sg11
g8
sg12
S'richard.shapiro@enron.com'
p578
sg14
g8
sg15
g8
sS'bonus_vs_salary'
p579
F2.4156743819590005
sg17
I4527
sg18
g8
sg19
I1215
sg20
I705
sg21
g8
sS'deferral_payments_vs_total_payments'
p580
g6
sg23
I650000
sg24
I987001
sg25
I74
sS'long_term_incentive_vs_salary'
p581
g6
sg27
I65
sg28
I379164
sS'total_stock_value_vs_salary'
p582
F3.668112354873716
sg30
I269076
sg31
I1057548
sg32
I607837
sS'from_poi_to_this_person_vs_to_messages'
p583
F0.0048848108786058485
sS'expenses_vs_salary'
p584
F0.5120003270451471
ssS'SHERRIFF JOHN R'
p585
(dp586
g3
I3187
sS'from_this_person_to_poi_vs_from_messages'
p587
F0.25
sS'exercised_stock_options_vs_total_stock_value'
p588
F0.5866310512492562
sg7
g8
sg9
g8
sg10
I00
sg11
g8
sg12
S'john.sherriff@enron.com'
p589
sg14
I554422
sg15
g8
sS'bonus_vs_salary'
p590
F3.4982974952189934
sg17
I2103
sg18
g8
sg19
I92
sg20
I1852186
sg21
g8
sS'deferral_payments_vs_total_payments'
p591
g6
sg23
I1500000
sg24
I3128982
sg25
I28
sS'long_term_incentive_vs_salary'
p592
F1.2930220625962032
sg27
I23
sg28
I1293424
sS'total_stock_value_vs_salary'
p593
F7.297406595456878
sg30
I428780
sg31
I4335388
sg32
I1835558
sS'from_poi_to_this_person_vs_to_messages'
p594
F0.008785691873235017
sS'expenses_vs_salary'
p595
g6
ssS'SHELBY REX'
p596
(dp597
g3
I225
sS'from_this_person_to_poi_vs_from_messages'
p598
F0.358974358974359
sS'exercised_stock_options_vs_total_stock_value'
p599
F0.6514218708895034
sg7
g8
sg9
I22884
sg10
I01
sg11
I-4167
sg12
S'rex.shelby@enron.com'
p600
sg14
g8
sg15
g8
sS'bonus_vs_salary'
p601
F0.9440909348388437
sg17
I91
sg18
g8
sg19
I39
sg20
I1573324
sg21
g8
sS'deferral_payments_vs_total_payments'
p602
g6
sg23
I200000
sg24
I2493616
sg25
I13
sS'long_term_incentive_vs_salary'
p603
g6
sg27
I14
sg28
I869220
sS'total_stock_value_vs_salary'
p604
F11.771001302845491
sg30
I211844
sg31
I2003885
sg32
I1624396
sS'from_poi_to_this_person_vs_to_messages'
p605
F0.057777777777777775
sS'expenses_vs_salary'
p606
F0.10802288476426049
ssS'LEMAISTRE CHARLES'
p607
(dp608
g3
g8
sS'from_this_person_to_poi_vs_from_messages'
p609
g6
sS'exercised_stock_options_vs_total_stock_value'
p610
F1.0
sg7
g8
sg9
g8
sg10
I00
sg11
I-25000
sg12
g8
sg14
g8
sg15
g8
sS'bonus_vs_salary'
p611
g6
sg17
g8
sg18
g8
sg19
g8
sg20
g8
sg21
I112492
sS'deferral_payments_vs_total_payments'
p612
g6
sg23
g8
sg24
I412878
sg25
g8
sS'long_term_incentive_vs_salary'
p613
g6
sg27
g8
sg28
g8
sS'total_stock_value_vs_salary'
p614
g6
sg30
g8
sg31
I87492
sg32
I412878
sS'from_poi_to_this_person_vs_to_messages'
p615
g6
sS'expenses_vs_salary'
p616
g6
ssS'DEFFNER JOSEPH M'
p617
(dp618
g3
I714
sS'from_this_person_to_poi_vs_from_messages'
p619
F0.05405405405405406
sS'exercised_stock_options_vs_total_stock_value'
p620
F0.10915074963413332
sg7
g8
sg9
I41626
sg10
I00
sg11
g8
sg12
S'joseph.deffner@enron.com'
p621
sg14
I335349
sg15
g8
sS'bonus_vs_salary'
p622
F2.910911551952494
sg17
I552
sg18
g8
sg19
I74
sg20
I25553
sg21
g8
sS'deferral_payments_vs_total_payments'
p623
g6
sg23
I600000
sg24
I159211
sg25
I115
sS'long_term_incentive_vs_salary'
p624
F1.6269521300595282
sg27
I4
sg28
I141833
sS'total_stock_value_vs_salary'
p625
F0.7724152318298475
sg30
I206121
sg31
I1208649
sg32
I17378
sS'from_poi_to_this_person_vs_to_messages'
p626
F0.16106442577030813
sS'expenses_vs_salary'
p627
F0.20194934043595753
ssS'KISHKILL JOSEPH G'
p628
(dp629
g3
g8
sS'from_this_person_to_poi_vs_from_messages'
p630
g6
sS'exercised_stock_options_vs_total_stock_value'
p631
g6
sg7
g8
sg9
I116335
sg10
I00
sg11
I-51042
sg12
S'joe.kishkill@enron.com'
p632
sg14
g8
sg15
g8
sS'bonus_vs_salary'
p633
g6
sg17
g8
sg18
g8
sg19
g8
sg20
I465357
sg21
g8
sS'deferral_payments_vs_total_payments'
p634
g6
sg23
g8
sg24
I1034346
sg25
g8
sS'long_term_incentive_vs_salary'
p635
g6
sg27
g8
sg28
I1034346
sS'total_stock_value_vs_salary'
p636
F5.936124789091285
sg30
I174246
sg31
I704896
sg32
g8
sS'from_poi_to_this_person_vs_to_messages'
p637
g6
sS'expenses_vs_salary'
p638
F0.6676480378315715
ssS'WHALLEY LAWRENCE G'
p639
(dp640
g3
I6019
sS'from_this_person_to_poi_vs_from_messages'
p641
F0.04316546762589928
sS'exercised_stock_options_vs_total_stock_value'
p642
F0.5400371796194098
sg7
g8
sg9
I57838
sg10
I00
sg11
g8
sg12
S'greg.whalley@enron.com'
p643
sg14
I808346
sg15
g8
sS'bonus_vs_salary'
p644
F5.878157550297435
sg17
I3920
sg18
g8
sg19
I556
sg20
I301026
sg21
g8
sS'deferral_payments_vs_total_payments'
p645
g6
sg23
I3000000
sg24
I6079137
sg25
I186
sS'long_term_incentive_vs_salary'
p646
F1.5838617143842435
sg27
I24
sg28
I2796177
sS'total_stock_value_vs_salary'
p647
F11.911375018614166
sg30
I510364
sg31
I4677574
sg32
I3282960
sS'from_poi_to_this_person_vs_to_messages'
p648
F0.03090214321315833
sS'expenses_vs_salary'
p649
F0.11332695879803434
ssS'MCCONNELL MICHAEL S'
p650
(dp651
g3
I3329
sS'from_this_person_to_poi_vs_from_messages'
p652
F0.07075127644055434
sS'exercised_stock_options_vs_total_stock_value'
p653
F0.5233356947246603
sg7
g8
sg9
I81364
sg10
I00
sg11
g8
sg12
S'mike.mcconnell@enron.com'
p654
sg14
I554422
sg15
g8
sS'bonus_vs_salary'
p655
F3.013384907872605
sg17
I2189
sg18
g8
sg19
I2742
sg20
I540
sg21
g8
sS'deferral_payments_vs_total_payments'
p656
g6
sg23
I1100000
sg24
I3101279
sg25
I92
sS'long_term_incentive_vs_salary'
p657
F1.5188062612659503
sg27
I194
sg28
I1478269
sS'total_stock_value_vs_salary'
p658
F8.495770303365678
sg30
I365038
sg31
I2101364
sg32
I1623010
sS'from_poi_to_this_person_vs_to_messages'
p659
F0.02763592670471613
sS'expenses_vs_salary'
p660
F0.22289186331286057
ssS'PIRO JIM'
p661
(dp662
g3
I58
sS'from_this_person_to_poi_vs_from_messages'
p663
F0.0625
sS'exercised_stock_options_vs_total_stock_value'
p664
g6
sg7
g8
sg9
g8
sg10
I00
sg11
g8
sg12
S'jim.piro@enron.com'
p665
sg14
g8
sg15
g8
sS'bonus_vs_salary'
p666
g6
sg17
I3
sg18
g8
sg19
I16
sg20
g8
sg21
g8
sS'deferral_payments_vs_total_payments'
p667
g6
sg23
g8
sg24
I47304
sg25
I0
sS'long_term_incentive_vs_salary'
p668
g6
sg27
I1
sg28
I47304
sS'total_stock_value_vs_salary'
p669
g6
sg30
g8
sg31
g8
sg32
g8
sS'from_poi_to_this_person_vs_to_messages'
p670
F0.0
sS'expenses_vs_salary'
p671
g6
ssS'DELAINEY DAVID W'
p672
(dp673
g3
I3093
sS'from_this_person_to_poi_vs_from_messages'
p674
F0.198435972629521
sS'exercised_stock_options_vs_total_stock_value'
p675
F0.6339091172441614
sg7
g8
sg9
I86174
sg10
I01
sg11
g8
sg12
S'david.delainey@enron.com'
p676
sg14
I1294981
sg15
g8
sS'bonus_vs_salary'
p677
F8.215509238340138
sg17
I2097
sg18
g8
sg19
I3069
sg20
I1661
sg21
g8
sS'deferral_payments_vs_total_payments'
p678
g6
sg23
I3000000
sg24
I3614261
sg25
I66
sS'long_term_incentive_vs_salary'
p679
F3.5463094563249835
sg27
I609
sg28
I1323148
sS'total_stock_value_vs_salary'
p680
F9.897664878424155
sg30
I365163
sg31
I4747979
sg32
I2291113
sS'from_poi_to_this_person_vs_to_messages'
p681
F0.02133850630455868
sS'expenses_vs_salary'
p682
F0.23598776436824104
ssS'SULLIVAN-SHAKLOVITZ COLLEEN'
p683
(dp684
g3
g8
sS'from_this_person_to_poi_vs_from_messages'
p685
g6
sS'exercised_stock_options_vs_total_stock_value'
p686
F1.0
sg7
I181993
sg9
g8
sg10
I00
sg11
g8
sg12
g8
sg14
I554422
sg15
g8
sS'bonus_vs_salary'
p687
F0.6143298582741017
sg17
g8
sg18
g8
sg19
g8
sg20
I162
sg21
g8
sS'deferral_payments_vs_total_payments'
p688
F0.18211027901968868
sg23
I100000
sg24
I1362375
sg25
g8
sS'long_term_incentive_vs_salary'
p689
F3.40597988684044
sg27
g8
sg28
g8
sS'total_stock_value_vs_salary'
p690
F8.369476406661793
sg30
I162779
sg31
I999356
sg32
I1362375
sS'from_poi_to_this_person_vs_to_messages'
p691
g6
sS'expenses_vs_salary'
p692
g6
ssS'WROBEL BRUCE'
p693
(dp694
g3
g8
sS'from_this_person_to_poi_vs_from_messages'
p695
g6
sS'exercised_stock_options_vs_total_stock_value'
p696
F1.0
sg7
g8
sg9
g8
sg10
I00
sg11
g8
sg12
g8
sg14
g8
sg15
g8
sS'bonus_vs_salary'
p697
g6
sg17
g8
sg18
g8
sg19
g8
sg20
g8
sg21
g8
sS'deferral_payments_vs_total_payments'
p698
g6
sg23
g8
sg24
I139130
sg25
g8
sS'long_term_incentive_vs_salary'
p699
g6
sg27
g8
sg28
g8
sS'total_stock_value_vs_salary'
p700
g6
sg30
g8
sg31
g8
sg32
I139130
sS'from_poi_to_this_person_vs_to_messages'
p701
g6
sS'expenses_vs_salary'
p702
g6
ssS'LINDHOLM TOD A'
p703
(dp704
g3
g8
sS'from_this_person_to_poi_vs_from_messages'
p705
g6
sS'exercised_stock_options_vs_total_stock_value'
p706
F0.8319804008083003
sg7
I204075
sg9
I57727
sg10
I00
sg11
g8
sg12
S'tod.lindholm@enron.com'
p707
sg14
I175000
sg15
g8
sS'bonus_vs_salary'
p708
F0.8458197473536415
sg17
g8
sg18
g8
sg19
g8
sg20
I2630
sg21
g8
sS'deferral_payments_vs_total_payments'
p709
F0.23299185170723688
sg23
I200000
sg24
I3064208
sg25
g8
sS'long_term_incentive_vs_salary'
p710
F0.7400922789344363
sg27
g8
sg28
I514847
sS'total_stock_value_vs_salary'
p711
F12.958838181995034
sg30
I236457
sg31
I875889
sg32
I2549361
sS'from_poi_to_this_person_vs_to_messages'
p712
g6
sS'expenses_vs_salary'
p713
F0.2441331827774183
ssS'MEYER JEROME J'
p714
(dp715
g3
g8
sS'from_this_person_to_poi_vs_from_messages'
p716
g6
sS'exercised_stock_options_vs_total_stock_value'
p717
g6
sg7
g8
sg9
I2151
sg10
I00
sg11
I-38346
sg12
g8
sg14
g8
sg15
g8
sS'bonus_vs_salary'
p718
g6
sg17
g8
sg18
g8
sg19
g8
sg20
g8
sg21
I38346
sS'deferral_payments_vs_total_payments'
p719
g6
sg23
g8
sg24
g8
sg25
g8
sS'long_term_incentive_vs_salary'
p720
g6
sg27
g8
sg28
g8
sS'total_stock_value_vs_salary'
p721
g6
sg30
g8
sg31
I2151
sg32
g8
sS'from_poi_to_this_person_vs_to_messages'
p722
g6
sS'expenses_vs_salary'
p723
g6
ssS'LAY KENNETH L'
p724
(dp725
g3
I4273
sS'from_this_person_to_poi_vs_from_messages'
p726
F0.4444444444444444
sS'exercised_stock_options_vs_total_stock_value'
p727
F0.6994161972212709
sg7
I202911
sg9
I99832
sg10
I01
sg11
I-300000
sg12
S'kenneth.lay@enron.com'
p728
sg14
I3600000
sg15
g8
sS'bonus_vs_salary'
p729
F6.527896031132468
sg17
I2411
sg18
I81525000
sg19
I36
sg20
I10359729
sg21
g8
sS'deferral_payments_vs_total_payments'
p730
F0.001959360811005097
sg23
I7000000
sg24
I49110078
sg25
I123
sS'long_term_incentive_vs_salary'
p731
F3.3572036731538413
sg27
I16
sg28
I14761694
sS'total_stock_value_vs_salary'
p732
F45.79792618068657
sg30
I1072321
sg31
I103559793
sg32
I34348384
sS'from_poi_to_this_person_vs_to_messages'
p733
F0.028785396676807865
sS'expenses_vs_salary'
p734
F0.09309898808285952
ssS'BUTTS ROBERT H'
p735
(dp736
g3
g8
sS'from_this_person_to_poi_vs_from_messages'
p737
g6
sS'exercised_stock_options_vs_total_stock_value'
p738
g6
sg7
g8
sg9
I9410
sg10
I00
sg11
I-75000
sg12
S'bob.butts@enron.com'
p739
sg14
I175000
sg15
g8
sS'bonus_vs_salary'
p740
F2.8678933602532926
sg17
g8
sg18
g8
sg19
g8
sg20
I150656
sg21
g8
sS'deferral_payments_vs_total_payments'
p741
g6
sg23
I750000
sg24
I417619
sg25
g8
sS'long_term_incentive_vs_salary'
p742
F0.6691751173924348
sg27
g8
sg28
I417619
sS'total_stock_value_vs_salary'
p743
F1.596915676287493
sg30
I261516
sg31
I1271582
sg32
g8
sS'from_poi_to_this_person_vs_to_messages'
p744
g6
sS'expenses_vs_salary'
p745
F0.035982502026644644
ssS'OLSON CINDY K'
p746
(dp747
g3
I1184
sS'from_this_person_to_poi_vs_from_messages'
p748
F0.28846153846153844
sS'exercised_stock_options_vs_total_stock_value'
p749
F0.6279949500587511
sg7
I77716
sg9
I63791
sg10
I00
sg11
g8
sg12
S'cindy.olson@enron.com'
p750
sg14
I100000
sg15
g8
sS'bonus_vs_salary'
p751
F2.279094925823057
sg17
I856
sg18
g8
sg19
I52
sg20
I972
sg21
g8
sS'deferral_payments_vs_total_payments'
p752
F0.05880639276247638
sg23
I750000
sg24
I2606763
sg25
I20
sS'long_term_incentive_vs_salary'
p753
F0.3038793234430743
sg27
I15
sg28
I969729
sS'total_stock_value_vs_salary'
p754
F7.921413768164387
sg30
I329078
sg31
I1321557
sg32
I1637034
sS'from_poi_to_this_person_vs_to_messages'
p755
F0.016891891891891893
sS'expenses_vs_salary'
p756
F0.19384765921757152
ssS'MCDONALD REBECCA'
p757
(dp758
g3
I894
sS'from_this_person_to_poi_vs_from_messages'
p759
F0.07692307692307693
sS'exercised_stock_options_vs_total_stock_value'
p760
F0.4477451953036776
sg7
g8
sg9
g8
sg10
I00
sg11
g8
sg12
S'rebecca.mcdonald@enron.com'
p761
sg14
g8
sg15
g8
sS'bonus_vs_salary'
p762
g6
sg17
I720
sg18
g8
sg19
I13
sg20
g8
sg21
g8
sS'deferral_payments_vs_total_payments'
p763
g6
sg23
g8
sg24
I1691366
sg25
I54
sS'long_term_incentive_vs_salary'
p764
g6
sg27
I1
sg28
I934065
sS'total_stock_value_vs_salary'
p765
g6
sg30
g8
sg31
g8
sg32
I757301
sS'from_poi_to_this_person_vs_to_messages'
p766
F0.06040268456375839
sS'expenses_vs_salary'
p767
g6
ssS'CUMBERLAND MICHAEL S'
p768
(dp769
g3
g8
sS'from_this_person_to_poi_vs_from_messages'
p770
g6
sS'exercised_stock_options_vs_total_stock_value'
p771
g6
sg7
g8
sg9
I22344
sg10
I00
sg11
g8
sg12
g8
sg14
I275000
sg15
g8
sS'bonus_vs_salary'
p772
F1.7577163748857485
sg17
g8
sg18
g8
sg19
g8
sg20
I713
sg21
g8
sS'deferral_payments_vs_total_payments'
p773
g6
sg23
I325000
sg24
I207940
sg25
g8
sS'long_term_incentive_vs_salary'
p774
F1.4872984710571717
sg27
g8
sg28
I207940
sS'total_stock_value_vs_salary'
p775
F1.1246139784422846
sg30
I184899
sg31
I807956
sg32
g8
sS'from_poi_to_this_person_vs_to_messages'
p776
g6
sS'expenses_vs_salary'
p777
F0.12084435286291435
ssS'GAHN ROBERT S'
p778
(dp779
g3
g8
sS'from_this_person_to_poi_vs_from_messages'
p780
g6
sS'exercised_stock_options_vs_total_stock_value'
p781
F0.2612528914932817
sg7
I73122
sg9
I50080
sg10
I00
sg11
I-1042
sg12
g8
sg14
g8
sg15
g8
sS'bonus_vs_salary'
p782
F2.6554622724053165
sg17
g8
sg18
g8
sg19
g8
sg20
I76547
sg21
g8
sS'deferral_payments_vs_total_payments'
p783
F0.08119389063775213
sg23
I509870
sg24
I318607
sg25
g8
sS'long_term_incentive_vs_salary'
p784
g6
sg27
g8
sg28
I235370
sS'total_stock_value_vs_salary'
p785
F1.6593423190700387
sg30
I192008
sg31
I900585
sg32
I83237
sS'from_poi_to_this_person_vs_to_messages'
p786
g6
sS'expenses_vs_salary'
p787
F0.26082246573059453
ssS'MCCLELLAN GEORGE'
p788
(dp789
g3
I1744
sS'from_this_person_to_poi_vs_from_messages'
p790
F0.0
sS'exercised_stock_options_vs_total_stock_value'
p791
F0.534640627686971
sg7
g8
sg9
I228763
sg10
I00
sg11
I-125000
sg12
S'george.mcclellan@enron.com'
p792
sg14
g8
sg15
g8
sS'bonus_vs_salary'
p793
F3.4166878627858153
sg17
I1469
sg18
g8
sg19
I49
sg20
I51587
sg21
g8
sS'deferral_payments_vs_total_payments'
p794
g6
sg23
I900000
sg24
I947861
sg25
I52
sS'long_term_incentive_vs_salary'
p795
g6
sg27
I0
sg28
I441096
sS'total_stock_value_vs_salary'
p796
F3.5983835270089175
sg30
I263413
sg31
I1318763
sg32
I506765
sS'from_poi_to_this_person_vs_to_messages'
p797
F0.02981651376146789
sS'expenses_vs_salary'
p798
F0.8684575172827461
ssS'HERMANN ROBERT J'
p799
(dp800
g3
g8
sS'from_this_person_to_poi_vs_from_messages'
p801
g6
sS'exercised_stock_options_vs_total_stock_value'
p802
F0.2806331682960852
sg7
g8
sg9
I48357
sg10
I00
sg11
I-280000
sg12
S'robert.hermann@enron.com'
p803
sg14
I150000
sg15
g8
sS'bonus_vs_salary'
p804
F2.665011821231007
sg17
g8
sg18
g8
sg19
g8
sg20
I416441
sg21
g8
sS'deferral_payments_vs_total_payments'
p805
g6
sg23
I700000
sg24
I668132
sg25
g8
sS'long_term_incentive_vs_salary'
p806
F0.5710739616923587
sg27
g8
sg28
I480632
sS'total_stock_value_vs_salary'
p807
F2.543685254489593
sg30
I262663
sg31
I1297461
sg32
I187500
sS'from_poi_to_this_person_vs_to_messages'
p808
g6
sS'expenses_vs_salary'
p809
F0.1841028237703826
ssS'SCRIMSHAW MATTHEW'
p810
(dp811
g3
g8
sS'from_this_person_to_poi_vs_from_messages'
p812
g6
sS'exercised_stock_options_vs_total_stock_value'
p813
F1.0
sg7
g8
sg9
g8
sg10
I00
sg11
g8
sg12
S'matthew.scrimshaw@enron.com'
p814
sg14
g8
sg15
g8
sS'bonus_vs_salary'
p815
g6
sg17
g8
sg18
g8
sg19
g8
sg20
g8
sg21
g8
sS'deferral_payments_vs_total_payments'
p816
g6
sg23
g8
sg24
I759557
sg25
g8
sS'long_term_incentive_vs_salary'
p817
g6
sg27
g8
sg28
g8
sS'total_stock_value_vs_salary'
p818
g6
sg30
g8
sg31
g8
sg32
I759557
sS'from_poi_to_this_person_vs_to_messages'
p819
g6
sS'expenses_vs_salary'
p820
g6
ssS'GATHMANN WILLIAM D'
p821
(dp822
g3
g8
sS'from_this_person_to_poi_vs_from_messages'
p823
g6
sS'exercised_stock_options_vs_total_stock_value'
p824
F0.9015123164864087
sg7
g8
sg9
g8
sg10
I00
sg11
g8
sg12
g8
sg14
g8
sg15
I-72419
sS'bonus_vs_salary'
p825
g6
sg17
g8
sg18
g8
sg19
g8
sg20
g8
sg21
g8
sS'deferral_payments_vs_total_payments'
p826
g6
sg23
g8
sg24
I1945360
sg25
g8
sS'long_term_incentive_vs_salary'
p827
g6
sg27
g8
sg28
I264013
sS'total_stock_value_vs_salary'
p828
g6
sg30
g8
sg31
g8
sg32
I1753766
sS'from_poi_to_this_person_vs_to_messages'
p829
g6
sS'expenses_vs_salary'
p830
g6
ssS'HAEDICKE MARK E'
p831
(dp832
g3
I4009
sS'from_this_person_to_poi_vs_from_messages'
p833
F0.03142709943328181
sS'exercised_stock_options_vs_total_stock_value'
p834
F0.7580059121348186
sg7
I2157527
sg9
I76169
sg10
I00
sg11
I-934484
sg12
S'mark.haedicke@enron.com'
p835
sg14
I983346
sg15
I-329825
sS'bonus_vs_salary'
p836
F3.073838957567658
sg17
I1847
sg18
g8
sg19
I1941
sg20
I52382
sg21
g8
sS'deferral_payments_vs_total_payments'
p837
F0.5590802435304925
sg23
I1150000
sg24
I803094
sg25
I180
sS'long_term_incentive_vs_salary'
p838
F2.6283889074507183
sg27
I61
sg28
I524169
sS'total_stock_value_vs_salary'
p839
F2.146592716338122
sg30
I374125
sg31
I3859065
sg32
I608750
sS'from_poi_to_this_person_vs_to_messages'
p840
F0.04489897730107259
sS'expenses_vs_salary'
p841
F0.2035923822251921
ssS'BOWEN JR RAYMOND M'
p842
(dp843
g3
I1858
sS'from_this_person_to_poi_vs_from_messages'
p844
F0.5555555555555556
sS'exercised_stock_options_vs_total_stock_value'
p845
g6
sg7
g8
sg9
I65907
sg10
I01
sg11
I-833
sg12
S'raymond.bowen@enron.com'
p846
sg14
I974293
sg15
g8
sS'bonus_vs_salary'
p847
F4.845639462887786
sg17
I1593
sg18
g8
sg19
I27
sg20
I1621
sg21
g8
sS'deferral_payments_vs_total_payments'
p848
g6
sg23
I1350000
sg24
I252055
sg25
I140
sS'long_term_incentive_vs_salary'
p849
F3.4970908216409846
sg27
I15
sg28
I252055
sS'total_stock_value_vs_salary'
p850
F0.9047167813468007
sg30
I278601
sg31
I2669589
sg32
g8
sS'from_poi_to_this_person_vs_to_messages'
p851
F0.07534983853606028
sS'expenses_vs_salary'
p852
F0.2365641185781817
ssS'GILLIS JOHN'
p853
(dp854
g3
g8
sS'from_this_person_to_poi_vs_from_messages'
p855
g6
sS'exercised_stock_options_vs_total_stock_value'
p856
F0.11446620193598861
sg7
g8
sg9
g8
sg10
I00
sg11
g8
sg12
g8
sg14
g8
sg15
g8
sS'bonus_vs_salary'
p857
g6
sg17
g8
sg18
g8
sg19
g8
sg20
g8
sg21
g8
sS'deferral_payments_vs_total_payments'
p858
g6
sg23
g8
sg24
I85641
sg25
g8
sS'long_term_incentive_vs_salary'
p859
g6
sg27
g8
sg28
I75838
sS'total_stock_value_vs_salary'
p860
g6
sg30
g8
sg31
g8
sg32
I9803
sS'from_poi_to_this_person_vs_to_messages'
p861
g6
sS'expenses_vs_salary'
p862
g6
ssS'FITZGERALD JAY L'
p863
(dp864
g3
I936
sS'from_this_person_to_poi_vs_from_messages'
p865
F0.5
sS'exercised_stock_options_vs_total_stock_value'
p866
F0.40984841195236227
sg7
g8
sg9
I23870
sg10
I00
sg11
g8
sg12
S'jay.fitzgerald@enron.com'
p867
sg14
I556416
sg15
g8
sS'bonus_vs_salary'
p868
F1.7574074724965731
sg17
I723
sg18
g8
sg19
I16
sg20
I285414
sg21
g8
sS'deferral_payments_vs_total_payments'
p869
g6
sg23
I350000
sg24
I1621236
sg25
I1
sS'long_term_incentive_vs_salary'
p870
F2.793856103476152
sg27
I8
sg28
I956775
sS'total_stock_value_vs_salary'
p871
F8.140492174515582
sg30
I199157
sg31
I1414857
sg32
I664461
sS'from_poi_to_this_person_vs_to_messages'
p872
F0.0010683760683760685
sS'expenses_vs_salary'
p873
F0.11985518962426628
ssS'MORAN MICHAEL P'
p874
(dp875
g3
I672
sS'from_this_person_to_poi_vs_from_messages'
p876
F0.0
sS'exercised_stock_options_vs_total_stock_value'
p877
F0.2692354651557151
sg7
g8
sg9
g8
sg10
I00
sg11
g8
sg12
S'michael.moran@enron.com'
p878
sg14
g8
sg15
g8
sS'bonus_vs_salary'
p879
g6
sg17
I127
sg18
g8
sg19
I19
sg20
g8
sg21
g8
sS'deferral_payments_vs_total_payments'
p880
g6
sg23
g8
sg24
I221141
sg25
I0
sS'long_term_incentive_vs_salary'
p881
g6
sg27
I0
sg28
I161602
sS'total_stock_value_vs_salary'
p882
g6
sg30
g8
sg31
g8
sg32
I59539
sS'from_poi_to_this_person_vs_to_messages'
p883
F0.0
sS'expenses_vs_salary'
p884
g6
ssS'REDMOND BRIAN L'
p885
(dp886
g3
I1671
sS'from_this_person_to_poi_vs_from_messages'
p887
F0.22171945701357465
sS'exercised_stock_options_vs_total_stock_value'
p888
F0.951676889314051
sg7
g8
sg9
I14689
sg10
I00
sg11
g8
sg12
S'brian.redmond@enron.com'
p889
sg14
g8
sg15
g8
sS'bonus_vs_salary'
p890
g6
sg17
I1063
sg18
g8
sg19
I221
sg20
g8
sg21
g8
sS'deferral_payments_vs_total_payments'
p891
g6
sg23
g8
sg24
I7890324
sg25
I204
sS'long_term_incentive_vs_salary'
p892
g6
sg27
I49
sg28
I381285
sS'total_stock_value_vs_salary'
p893
F81.47794299876084
sg30
I96840
sg31
I111529
sg32
I7509039
sS'from_poi_to_this_person_vs_to_messages'
p894
F0.12208258527827648
sS'expenses_vs_salary'
p895
F0.15168318876497316
ssS'BAZELIDES PHILIP J'
p896
(dp897
g3
g8
sS'from_this_person_to_poi_vs_from_messages'
p898
g6
sS'exercised_stock_options_vs_total_stock_value'
p899
F1.0
sg7
I684694
sg9
g8
sg10
I00
sg11
g8
sg12
g8
sg14
I93750
sg15
g8
sS'bonus_vs_salary'
p900
g6
sg17
g8
sg18
g8
sg19
g8
sg20
I874
sg21
g8
sS'deferral_payments_vs_total_payments'
p901
F0.7960299301505809
sg23
g8
sg24
I1599641
sg25
g8
sS'long_term_incentive_vs_salary'
p902
F1.160013858298894
sg27
g8
sg28
g8
sS'total_stock_value_vs_salary'
p903
F19.793127768566407
sg30
I80818
sg31
I860136
sg32
I1599641
sS'from_poi_to_this_person_vs_to_messages'
p904
g6
sS'expenses_vs_salary'
p905
g6
ssS'BELDEN TIMOTHY N'
p906
(dp907
g3
I7991
sS'from_this_person_to_poi_vs_from_messages'
p908
F0.2231404958677686
sS'exercised_stock_options_vs_total_stock_value'
p909
F0.8581360487258093
sg7
I2144013
sg9
I17355
sg10
I01
sg11
I-2334434
sg12
S'tim.belden@enron.com'
p910
sg14
g8
sg15
g8
sS'bonus_vs_salary'
p911
F24.532820246823583
sg17
I5521
sg18
g8
sg19
I484
sg20
I210698
sg21
g8
sS'deferral_payments_vs_total_payments'
p912
F0.38970505104850744
sg23
I5249999
sg24
I1110705
sg25
I228
sS'long_term_incentive_vs_salary'
p913
g6
sg27
I108
sg28
I157569
sS'total_stock_value_vs_salary'
p914
F5.190234533806232
sg30
I213999
sg31
I5501630
sg32
I953136
sS'from_poi_to_this_person_vs_to_messages'
p915
F0.028532098610937303
sS'expenses_vs_salary'
p916
F0.08109850980612059
ssS'DURAN WILLIAM D'
p917
(dp918
g3
I904
sS'from_this_person_to_poi_vs_from_messages'
p919
F0.25
sS'exercised_stock_options_vs_total_stock_value'
p920
F0.8847950222742259
sg7
g8
sg9
I25785
sg10
I00
sg11
g8
sg12
S'w.duran@enron.com'
p921
sg14
I1105218
sg15
g8
sS'bonus_vs_salary'
p922
F3.559698517266911
sg17
I599
sg18
g8
sg19
I12
sg20
I1568
sg21
g8
sS'deferral_payments_vs_total_payments'
p923
g6
sg23
I750000
sg24
I1640910
sg25
I106
sS'long_term_incentive_vs_salary'
p924
F5.245657167808934
sg27
I3
sg28
I189041
sS'total_stock_value_vs_salary'
p925
F7.788193191957929
sg30
I210692
sg31
I2093263
sg32
I1451869
sS'from_poi_to_this_person_vs_to_messages'
p926
F0.1172566371681416
sS'expenses_vs_salary'
p927
F0.1223824350236364
ssS'THORN TERENCE H'
p928
(dp929
g3
I266
sS'from_this_person_to_poi_vs_from_messages'
p930
F0.0
sS'exercised_stock_options_vs_total_stock_value'
p931
F0.9241727960254025
sg7
I16586
sg9
I46145
sg10
I00
sg11
g8
sg12
S'terence.thorn@enron.com'
p932
sg14
I200000
sg15
g8
sS'bonus_vs_salary'
p933
g6
sg17
I73
sg18
g8
sg19
I41
sg20
I426629
sg21
g8
sS'deferral_payments_vs_total_payments'
p934
F0.018197317908877363
sg23
g8
sg24
I4817796
sg25
I0
sS'long_term_incentive_vs_salary'
p935
F0.9005236545050948
sg27
I0
sg28
I365320
sS'total_stock_value_vs_salary'
p936
F21.692696302900135
sg30
I222093
sg31
I911453
sg32
I4452476
sS'from_poi_to_this_person_vs_to_messages'
p937
F0.0
sS'expenses_vs_salary'
p938
F0.20777332018568798
ssS'FASTOW ANDREW S'
p939
(dp940
g3
g8
sS'from_this_person_to_poi_vs_from_messages'
p941
g6
sS'exercised_stock_options_vs_total_stock_value'
p942
g6
sg7
g8
sg9
I55921
sg10
I01
sg11
I-1386055
sg12
S'andrew.fastow@enron.com'
p943
sg14
I1736055
sg15
g8
sS'bonus_vs_salary'
p944
F2.949865894558178
sg17
g8
sg18
g8
sg19
g8
sg20
I277464
sg21
g8
sS'deferral_payments_vs_total_payments'
p945
g6
sg23
I1300000
sg24
I1794412
sg25
g8
sS'long_term_incentive_vs_salary'
p946
F3.939330335059383
sg27
g8
sg28
I1794412
sS'total_stock_value_vs_salary'
p947
F4.0717498150661
sg30
I440698
sg31
I2424083
sg32
g8
sS'from_poi_to_this_person_vs_to_messages'
p948
g6
sS'expenses_vs_salary'
p949
F0.12689188514583682
ssS'FOY JOE'
p950
(dp951
g3
I57
sS'from_this_person_to_poi_vs_from_messages'
p952
F0.0
sS'exercised_stock_options_vs_total_stock_value'
p953
F1.0
sg7
I181755
sg9
g8
sg10
I00
sg11
g8
sg12
S'tracy.foy@enron.com'
p954
sg14
g8
sg15
g8
sS'bonus_vs_salary'
p955
g6
sg17
I2
sg18
g8
sg19
I13
sg20
g8
sg21
g8
sS'deferral_payments_vs_total_payments'
p956
F1.0
sg23
g8
sg24
I343434
sg25
I0
sS'long_term_incentive_vs_salary'
p957
g6
sg27
I0
sg28
g8
sS'total_stock_value_vs_salary'
p958
g6
sg30
g8
sg31
I181755
sg32
I343434
sS'from_poi_to_this_person_vs_to_messages'
p959
F0.0
sS'expenses_vs_salary'
p960
g6
ssS'CALGER CHRISTOPHER F'
p961
(dp962
g3
I2598
sS'from_this_person_to_poi_vs_from_messages'
p963
F0.1736111111111111
sS'exercised_stock_options_vs_total_stock_value'
p964
g6
sg7
g8
sg9
I35818
sg10
I01
sg11
I-262500
sg12
S'christopher.calger@enron.com'
p965
sg14
I375304
sg15
g8
sS'bonus_vs_salary'
p966
F5.204234998272194
sg17
I2188
sg18
g8
sg19
I144
sg20
I486
sg21
g8
sS'deferral_payments_vs_total_payments'
p967
g6
sg23
I1250000
sg24
I126027
sg25
I199
sS'long_term_incentive_vs_salary'
p968
F1.562536169433238
sg27
I25
sg28
I126027
sS'total_stock_value_vs_salary'
p969
F0.5246992993017998
sg30
I240189
sg31
I1639297
sg32
g8
sS'from_poi_to_this_person_vs_to_messages'
p970
F0.07659738260200154
sS'expenses_vs_salary'
p971
F0.14912423133449076
ssS'RICE KENNETH D'
p972
(dp973
g3
I905
sS'from_this_person_to_poi_vs_from_messages'
p974
F0.2222222222222222
sS'exercised_stock_options_vs_total_stock_value'
p975
F0.8780809916753388
sg7
g8
sg9
I46950
sg10
I01
sg11
I-3504386
sg12
S'ken.rice@enron.com'
p976
sg14
I1617011
sg15
g8
sS'bonus_vs_salary'
p977
F4.160366682832663
sg17
I864
sg18
g8
sg19
I18
sg20
I174839
sg21
g8
sS'deferral_payments_vs_total_payments'
p978
g6
sg23
I1750000
sg24
I22542539
sg25
I42
sS'long_term_incentive_vs_salary'
p979
F3.8442049658136725
sg27
I4
sg28
I2748364
sS'total_stock_value_vs_salary'
p980
F53.591558972603394
sg30
I420636
sg31
I505050
sg32
I19794175
sS'from_poi_to_this_person_vs_to_messages'
p981
F0.04640883977900553
sS'expenses_vs_salary'
p982
F0.11161669471942487
ssS'KAMINSKI WINCENTY J'
p983
(dp984
g3
I4607
sS'from_this_person_to_poi_vs_from_messages'
p985
F0.011901447661469933
sS'exercised_stock_options_vs_total_stock_value'
p986
F0.8708788703706929
sg7
g8
sg9
I83585
sg10
I00
sg11
g8
sg12
S'vince.kaminski@enron.com'
p987
sg14
I323466
sg15
g8
sS'bonus_vs_salary'
p988
F1.4540114357999425
sg17
I583
sg18
g8
sg19
I14368
sg20
I4669
sg21
g8
sS'deferral_payments_vs_total_payments'
p989
g6
sg23
I400000
sg24
I976037
sg25
I41
sS'long_term_incentive_vs_salary'
p990
F1.1758081577311605
sg27
I171
sg28
I126027
sS'total_stock_value_vs_salary'
p991
F3.5479223994096714
sg30
I275101
sg31
I1086821
sg32
I850010
sS'from_poi_to_this_person_vs_to_messages'
p992
F0.008899500759713479
sS'expenses_vs_salary'
p993
F0.3038338646533455
ssS'COX DAVID'
p994
(dp995
g3
I102
sS'from_this_person_to_poi_vs_from_messages'
p996
F0.12121212121212122
sS'exercised_stock_options_vs_total_stock_value'
p997
F0.23717347311417925
sg7
g8
sg9
I27861
sg10
I00
sg11
I-41250
sg12
S'chip.cox@enron.com'
p998
sg14
g8
sg15
g8
sS'bonus_vs_salary'
p999
F2.5454360331924857
sg17
I71
sg18
g8
sg19
I33
sg20
I494
sg21
g8
sS'deferral_payments_vs_total_payments'
p1000
g6
sg23
I800000
sg24
I495633
sg25
I0
sS'long_term_incentive_vs_salary'
p1001
g6
sg27
I4
sg28
I378082
sS'total_stock_value_vs_salary'
p1002
F1.5770026217991142
sg30
I314288
sg31
I1101393
sg32
I117551
sS'from_poi_to_this_person_vs_to_messages'
p1003
F0.0
sS'expenses_vs_salary'
p1004
F0.08864799165096982
ssS'OVERDYKE JR JERE C'
p1005
(dp1006
g3
g8
sS'from_this_person_to_poi_vs_from_messages'
p1007
g6
sS'exercised_stock_options_vs_total_stock_value'
p1008
F0.7206993163550137
sg7
g8
sg9
I18834
sg10
I00
sg11
g8
sg12
S'jere.overdyke@enron.com'
p1009
sg14
I135836
sg15
g8
sS'bonus_vs_salary'
p1010
g6
sg17
g8
sg18
g8
sg19
g8
sg20
I176
sg21
g8
sS'deferral_payments_vs_total_payments'
p1011
g6
sg23
g8
sg24
I7307594
sg25
g8
sS'long_term_incentive_vs_salary'
p1012
F1.4307411971645547
sg27
g8
sg28
I2041016
sS'total_stock_value_vs_salary'
p1013
F76.96984442969844
sg30
I94941
sg31
I249787
sg32
I5266578
sS'from_poi_to_this_person_vs_to_messages'
p1014
g6
sS'expenses_vs_salary'
p1015
F0.19837583341232976
ssS'PEREIRA PAULO V. FERRAZ'
p1016
(dp1017
g3
g8
sS'from_this_person_to_poi_vs_from_messages'
p1018
g6
sS'exercised_stock_options_vs_total_stock_value'
p1019
g6
sg7
g8
sg9
I27942
sg10
I00
sg11
I-101250
sg12
g8
sg14
g8
sg15
g8
sS'bonus_vs_salary'
p1020
g6
sg17
g8
sg18
g8
sg19
g8
sg20
g8
sg21
I101250
sS'deferral_payments_vs_total_payments'
p1021
g6
sg23
g8
sg24
g8
sg25
g8
sS'long_term_incentive_vs_salary'
p1022
g6
sg27
g8
sg28
g8
sS'total_stock_value_vs_salary'
p1023
g6
sg30
g8
sg31
I27942
sg32
g8
sS'from_poi_to_this_person_vs_to_messages'
p1024
g6
sS'expenses_vs_salary'
p1025
g6
ssS'STABLER FRANK'
p1026
(dp1027
g3
g8
sS'from_this_person_to_poi_vs_from_messages'
p1028
g6
sS'exercised_stock_options_vs_total_stock_value'
p1029
g6
sg7
g8
sg9
I16514
sg10
I00
sg11
g8
sg12
S'frank.stabler@enron.com'
p1030
sg14
g8
sg15
g8
sS'bonus_vs_salary'
p1031
F2.0876652387036434
sg17
g8
sg18
g8
sg19
g8
sg20
I356071
sg21
g8
sS'deferral_payments_vs_total_payments'
p1032
g6
sg23
I500000
sg24
I511734
sg25
g8
sS'long_term_incentive_vs_salary'
p1033
g6
sg27
g8
sg28
I511734
sS'total_stock_value_vs_salary'
p1034
F2.1366585665255404
sg30
I239502
sg31
I1112087
sg32
g8
sS'from_poi_to_this_person_vs_to_messages'
p1035
g6
sS'expenses_vs_salary'
p1036
F0.06895140750390394
ssS'SKILLING JEFFREY K'
p1037
(dp1038
g3
I3627
sS'from_this_person_to_poi_vs_from_messages'
p1039
F0.2777777777777778
sS'exercised_stock_options_vs_total_stock_value'
p1040
F0.7377267561269261
sg7
g8
sg9
I29336
sg10
I01
sg11
g8
sg12
S'jeff.skilling@enron.com'
p1041
sg14
I1920000
sg15
g8
sS'bonus_vs_salary'
p1042
F5.03933380007163
sg17
I2042
sg18
g8
sg19
I108
sg20
I22122
sg21
g8
sS'deferral_payments_vs_total_payments'
p1043
g6
sg23
I5600000
sg24
I26093672
sg25
I88
sS'long_term_incentive_vs_salary'
p1044
F1.7277715885959877
sg27
I30
sg28
I6843672
sS'total_stock_value_vs_salary'
p1045
F23.481200585282625
sg30
I1111258
sg31
I8682716
sg32
I19250000
sS'from_poi_to_this_person_vs_to_messages'
p1046
F0.0242624758753791
sS'expenses_vs_salary'
p1047
F0.026398910064089526
ssS'BLAKE JR. NORMAN P'
p1048
(dp1049
g3
g8
sS'from_this_person_to_poi_vs_from_messages'
p1050
g6
sS'exercised_stock_options_vs_total_stock_value'
p1051
g6
sg7
g8
sg9
I1279
sg10
I00
sg11
I-113784
sg12
g8
sg14
g8
sg15
g8
sS'bonus_vs_salary'
p1052
g6
sg17
g8
sg18
g8
sg19
g8
sg20
g8
sg21
I113784
sS'deferral_payments_vs_total_payments'
p1053
g6
sg23
g8
sg24
g8
sg25
g8
sS'long_term_incentive_vs_salary'
p1054
g6
sg27
g8
sg28
g8
sS'total_stock_value_vs_salary'
p1055
g6
sg30
g8
sg31
I1279
sg32
g8
sS'from_poi_to_this_person_vs_to_messages'
p1056
g6
sS'expenses_vs_salary'
p1057
g6
ssS'SHERRICK JEFFREY B'
p1058
(dp1059
g3
I613
sS'from_this_person_to_poi_vs_from_messages'
p1060
F0.72
sS'exercised_stock_options_vs_total_stock_value'
p1061
F0.7784414243522942
sg7
g8
sg9
g8
sg10
I00
sg11
g8
sg12
S'jeffrey.sherrick@enron.com'
p1062
sg14
g8
sg15
g8
sS'bonus_vs_salary'
p1063
g6
sg17
I583
sg18
g8
sg19
I25
sg20
g8
sg21
g8
sS'deferral_payments_vs_total_payments'
p1064
g6
sg23
g8
sg24
I1832468
sg25
I39
sS'long_term_incentive_vs_salary'
p1065
g6
sg27
I18
sg28
I405999
sS'total_stock_value_vs_salary'
p1066
g6
sg30
g8
sg31
g8
sg32
I1426469
sS'from_poi_to_this_person_vs_to_messages'
p1067
F0.0636215334420881
sS'expenses_vs_salary'
p1068
g6
ssS'PRENTICE JAMES'
p1069
(dp1070
g3
g8
sS'from_this_person_to_poi_vs_from_messages'
p1071
g6
sS'exercised_stock_options_vs_total_stock_value'
p1072
F0.8093138150204559
sg7
I564348
sg9
g8
sg10
I00
sg11
g8
sg12
S'james.prentice@enron.com'
p1073
sg14
g8
sg15
g8
sS'bonus_vs_salary'
p1074
g6
sg17
g8
sg18
g8
sg19
g8
sg20
g8
sg21
g8
sS'deferral_payments_vs_total_payments'
p1075
F1.0
sg23
g8
sg24
I1095040
sg25
g8
sS'long_term_incentive_vs_salary'
p1076
g6
sg27
g8
sg28
I208809
sS'total_stock_value_vs_salary'
p1077
g6
sg30
g8
sg31
I564348
sg32
I886231
sS'from_poi_to_this_person_vs_to_messages'
p1078
g6
sS'expenses_vs_salary'
p1079
g6
ssS'GRAY RODNEY'
p1080
(dp1081
g3
g8
sS'from_this_person_to_poi_vs_from_messages'
p1082
g6
sS'exercised_stock_options_vs_total_stock_value'
p1083
g6
sg7
I93585
sg9
g8
sg10
I00
sg11
g8
sg12
g8
sg14
I365625
sg15
g8
sS'bonus_vs_salary'
p1084
g6
sg17
g8
sg18
g8
sg19
g8
sg20
I680833
sg21
g8
sS'deferral_payments_vs_total_payments'
p1085
F0.08161544244229753
sg23
g8
sg24
g8
sg25
g8
sS'long_term_incentive_vs_salary'
p1086
F55.27210884353742
sg27
g8
sg28
g8
sS'total_stock_value_vs_salary'
p1087
g6
sg30
I6615
sg31
I1146658
sg32
g8
sS'from_poi_to_this_person_vs_to_messages'
p1088
g6
sS'expenses_vs_salary'
p1089
g6
ssS'PICKERING MARK R'
p1090
(dp1091
g3
I898
sS'from_this_person_to_poi_vs_from_messages'
p1092
F0.0
sS'exercised_stock_options_vs_total_stock_value'
p1093
F1.0
sg7
g8
sg9
I31653
sg10
I00
sg11
g8
sg12
S'mark.pickering@enron.com'
p1094
sg14
g8
sg15
g8
sS'bonus_vs_salary'
p1095
F0.45798939601885086
sg17
I728
sg18
I400000
sg19
I67
sg20
g8
sg21
g8
sS'deferral_payments_vs_total_payments'
p1096
g6
sg23
I300000
sg24
I28798
sg25
I7
sS'long_term_incentive_vs_salary'
p1097
g6
sg27
I0
sg28
g8
sS'total_stock_value_vs_salary'
p1098
F0.04396392875516956
sg30
I655037
sg31
I1386690
sg32
I28798
sS'from_poi_to_this_person_vs_to_messages'
p1099
F0.0077951002227171495
sS'expenses_vs_salary'
p1100
F0.04832246117394895
ssS'NOLES JAMES L'
p1101
(dp1102
g3
g8
sS'from_this_person_to_poi_vs_from_messages'
p1103
g6
sS'exercised_stock_options_vs_total_stock_value'
p1104
g6
sg7
I774401
sg9
g8
sg10
I00
sg11
g8
sg12
g8
sg14
g8
sg15
I-94556
sS'bonus_vs_salary'
p1105
g6
sg17
g8
sg18
g8
sg19
g8
sg20
g8
sg21
g8
sS'deferral_payments_vs_total_payments'
p1106
F1.0
sg23
g8
sg24
I368705
sg25
g8
sS'long_term_incentive_vs_salary'
p1107
g6
sg27
g8
sg28
I463261
sS'total_stock_value_vs_salary'
p1108
g6
sg30
g8
sg31
I774401
sg32
g8
sS'from_poi_to_this_person_vs_to_messages'
p1109
g6
sS'expenses_vs_salary'
p1110
g6
ssS'KEAN STEVEN J'
p1111
(dp1112
g3
I12754
sS'from_this_person_to_poi_vs_from_messages'
p1113
F0.05725699067909454
sS'exercised_stock_options_vs_total_stock_value'
p1114
F0.32859370109603386
sg7
g8
sg9
I41953
sg10
I00
sg11
g8
sg12
S'steven.kean@enron.com'
p1115
sg14
I300000
sg15
g8
sS'bonus_vs_salary'
p1116
F2.473178380463869
sg17
I3639
sg18
g8
sg19
I6759
sg20
I1231
sg21
g8
sS'deferral_payments_vs_total_payments'
p1117
g6
sg23
I1000000
sg24
I6153642
sg25
I140
sS'long_term_incentive_vs_salary'
p1118
F0.7419535141391608
sg27
I387
sg28
I4131594
sS'total_stock_value_vs_salary'
p1119
F15.219054355514446
sg30
I404338
sg31
I1747522
sg32
I2022048
sS'from_poi_to_this_person_vs_to_messages'
p1120
F0.010976948408342482
sS'expenses_vs_salary'
p1121
F0.10375725259560072
ssS'FOWLER PEGGY'
p1122
(dp1123
g3
I517
sS'from_this_person_to_poi_vs_from_messages'
p1124
F0.0
sS'exercised_stock_options_vs_total_stock_value'
p1125
F0.7027878528057863
sg7
g8
sg9
g8
sg10
I00
sg11
g8
sg12
S'kulvinder.fowler@enron.com'
p1126
sg14
g8
sg15
g8
sS'bonus_vs_salary'
p1127
g6
sg17
I10
sg18
g8
sg19
I36
sg20
g8
sg21
g8
sS'deferral_payments_vs_total_payments'
p1128
g6
sg23
g8
sg24
I1884748
sg25
I0
sS'long_term_incentive_vs_salary'
p1129
g6
sg27
I0
sg28
I560170
sS'total_stock_value_vs_salary'
p1130
g6
sg30
g8
sg31
g8
sg32
I1324578
sS'from_poi_to_this_person_vs_to_messages'
p1131
F0.0
sS'expenses_vs_salary'
p1132
g6
ssS'WASAFF GEORGE'
p1133
(dp1134
g3
I400
sS'from_this_person_to_poi_vs_from_messages'
p1135
F0.23333333333333334
sS'exercised_stock_options_vs_total_stock_value'
p1136
F0.8112420231790382
sg7
I831299
sg9
g8
sg10
I00
sg11
I-583325
sg12
S'george.wasaff@enron.com'
p1137
sg14
I200000
sg15
g8
sS'bonus_vs_salary'
p1138
F1.2500192310650933
sg17
I337
sg18
g8
sg19
I30
sg20
I1425
sg21
g8
sS'deferral_payments_vs_total_payments'
p1139
F0.8036572102533365
sg23
I325000
sg24
I2056427
sg25
I22
sS'long_term_incentive_vs_salary'
p1140
F0.7692426037323651
sg27
I7
sg28
I388167
sS'total_stock_value_vs_salary'
p1141
F7.909456299327682
sg30
I259996
sg31
I1034395
sg32
I1668260
sS'from_poi_to_this_person_vs_to_messages'
p1142
F0.055
sS'expenses_vs_salary'
p1143
g6
ssS'WHITE JR THOMAS E'
p1144
(dp1145
g3
g8
sS'from_this_person_to_poi_vs_from_messages'
p1146
g6
sS'exercised_stock_options_vs_total_stock_value'
p1147
F0.08564701963923563
sg7
g8
sg9
I81353
sg10
I00
sg11
g8
sg12
S'thomas.white@enron.com'
p1148
sg14
g8
sg15
g8
sS'bonus_vs_salary'
p1149
F1.417130908254945
sg17
g8
sg18
g8
sg19
g8
sg20
I1085463
sg21
g8
sS'deferral_payments_vs_total_payments'
p1150
g6
sg23
I450000
sg24
I15144123
sg25
g8
sS'long_term_incentive_vs_salary'
p1151
g6
sg27
g8
sg28
I13847074
sS'total_stock_value_vs_salary'
p1152
F47.69156618158801
sg30
I317543
sg31
I1934359
sg32
I1297049
sS'from_poi_to_this_person_vs_to_messages'
p1153
g6
sS'expenses_vs_salary'
p1154
F0.2561952239539212
ssS'CHRISTODOULOU DIOMEDES'
p1155
(dp1156
g3
g8
sS'from_this_person_to_poi_vs_from_messages'
p1157
g6
sS'exercised_stock_options_vs_total_stock_value'
p1158
F0.8435755201027989
sg7
g8
sg9
g8
sg10
I00
sg11
g8
sg12
S'diomedes.christodoulou@enron.com'
p1159
sg14
g8
sg15
g8
sS'bonus_vs_salary'
p1160
g6
sg17
g8
sg18
g8
sg19
g8
sg20
g8
sg21
g8
sS'deferral_payments_vs_total_payments'
p1161
g6
sg23
g8
sg24
I6077885
sg25
g8
sS'long_term_incentive_vs_salary'
p1162
g6
sg27
g8
sg28
I950730
sS'total_stock_value_vs_salary'
p1163
g6
sg30
g8
sg31
g8
sg32
I5127155
sS'from_poi_to_this_person_vs_to_messages'
p1164
g6
sS'expenses_vs_salary'
p1165
g6
ssS'ALLEN PHILLIP K'
p1166
(dp1167
g3
I2902
sS'from_this_person_to_poi_vs_from_messages'
p1168
F0.029612756264236904
sS'exercised_stock_options_vs_total_stock_value'
p1169
F1.0
sg7
I2869717
sg9
I13868
sg10
I00
sg11
I-3081055
sg12
S'phillip.allen@enron.com'
p1170
sg14
I304805
sg15
I-126027
sS'bonus_vs_salary'
p1171
F20.672922185635414
sg17
I1407
sg18
g8
sg19
I2195
sg20
I152
sg21
g8
sS'deferral_payments_vs_total_payments'
p1172
F0.6399273309812012
sg23
I4175000
sg24
I1729541
sg25
I47
sS'long_term_incentive_vs_salary'
p1173
F1.5092718674952341
sg27
I65
sg28
I126027
sS'total_stock_value_vs_salary'
p1174
F8.563991978411032
sg30
I201955
sg31
I4484442
sg32
I1729541
sS'from_poi_to_this_person_vs_to_messages'
p1175
F0.016195727084769126
sS'expenses_vs_salary'
p1176
F0.06866876284320765
ssS'SHARP VICTORIA T'
p1177
(dp1178
g3
I3136
sS'from_this_person_to_poi_vs_from_messages'
p1179
F0.04411764705882353
sS'exercised_stock_options_vs_total_stock_value'
p1180
F0.5688170867939191
sg7
I187469
sg9
I116337
sg10
I00
sg11
g8
sg12
S'vicki.sharp@enron.com'
p1181
sg14
I422158
sg15
g8
sS'bonus_vs_salary'
p1182
F2.417931379107461
sg17
I2477
sg18
g8
sg19
I136
sg20
I2401
sg21
g8
sS'deferral_payments_vs_total_payments'
p1183
F0.1189138547082767
sg23
I600000
sg24
I494136
sg25
I24
sS'long_term_incentive_vs_salary'
p1184
F1.7012484585687457
sg27
I6
sg28
I213063
sS'total_stock_value_vs_salary'
p1185
F1.9913115665777406
sg30
I248146
sg31
I1576511
sg32
I281073
sS'from_poi_to_this_person_vs_to_messages'
p1186
F0.007653061224489796
sS'expenses_vs_salary'
p1187
F0.46882480475204114
ssS'JAEDICKE ROBERT'
p1188
(dp1189
g3
g8
sS'from_this_person_to_poi_vs_from_messages'
p1190
g6
sS'exercised_stock_options_vs_total_stock_value'
p1191
F1.0
sg7
g8
sg9
g8
sg10
I00
sg11
I-25000
sg12
g8
sg14
g8
sg15
I-44093
sS'bonus_vs_salary'
p1192
g6
sg17
g8
sg18
g8
sg19
g8
sg20
g8
sg21
I108750
sS'deferral_payments_vs_total_payments'
p1193
g6
sg23
g8
sg24
I431750
sg25
g8
sS'long_term_incentive_vs_salary'
p1194
g6
sg27
g8
sg28
I44093
sS'total_stock_value_vs_salary'
p1195
g6
sg30
g8
sg31
I83750
sg32
I431750
sS'from_poi_to_this_person_vs_to_messages'
p1196
g6
sS'expenses_vs_salary'
p1197
g6
ssS'WINOKUR JR. HERBERT S'
p1198
(dp1199
g3
g8
sS'from_this_person_to_poi_vs_from_messages'
p1200
g6
sS'exercised_stock_options_vs_total_stock_value'
p1201
g6
sg7
g8
sg9
I1413
sg10
I00
sg11
I-25000
sg12
g8
sg14
g8
sg15
g8
sS'bonus_vs_salary'
p1202
g6
sg17
g8
sg18
g8
sg19
g8
sg20
g8
sg21
I108579
sS'deferral_payments_vs_total_payments'
p1203
g6
sg23
g8
sg24
g8
sg25
g8
sS'long_term_incentive_vs_salary'
p1204
g6
sg27
g8
sg28
g8
sS'total_stock_value_vs_salary'
p1205
g6
sg30
g8
sg31
I84992
sg32
g8
sS'from_poi_to_this_person_vs_to_messages'
p1206
g6
sS'expenses_vs_salary'
p1207
g6
ssS'BROWN MICHAEL'
p1208
(dp1209
g3
I1486
sS'from_this_person_to_poi_vs_from_messages'
p1210
F0.024390243902439025
sS'exercised_stock_options_vs_total_stock_value'
p1211
g6
sg7
g8
sg9
I49288
sg10
I00
sg11
g8
sg12
S'michael.brown@enron.com'
p1212
sg14
g8
sg15
g8
sS'bonus_vs_salary'
p1213
g6
sg17
I761
sg18
g8
sg19
I41
sg20
g8
sg21
g8
sS'deferral_payments_vs_total_payments'
p1214
g6
sg23
g8
sg24
g8
sg25
I13
sS'long_term_incentive_vs_salary'
p1215
g6
sg27
I1
sg28
g8
sS'total_stock_value_vs_salary'
p1216
g6
sg30
g8
sg31
I49288
sg32
g8
sS'from_poi_to_this_person_vs_to_messages'
p1217
F0.008748317631224764
sS'expenses_vs_salary'
p1218
g6
ssS'BADUM JAMES P'
p1219
(dp1220
g3
g8
sS'from_this_person_to_poi_vs_from_messages'
p1221
g6
sS'exercised_stock_options_vs_total_stock_value'
p1222
F1.0
sg7
I178980
sg9
I3486
sg10
I00
sg11
g8
sg12
g8
sg14
g8
sg15
g8
sS'bonus_vs_salary'
p1223
g6
sg17
g8
sg18
g8
sg19
g8
sg20
g8
sg21
g8
sS'deferral_payments_vs_total_payments'
p1224
F0.9808950708625168
sg23
g8
sg24
I257817
sg25
g8
sS'long_term_incentive_vs_salary'
p1225
g6
sg27
g8
sg28
g8
sS'total_stock_value_vs_salary'
p1226
g6
sg30
g8
sg31
I182466
sg32
I257817
sS'from_poi_to_this_person_vs_to_messages'
p1227
g6
sS'expenses_vs_salary'
p1228
g6
ssS'HUGHES JAMES A'
p1229
(dp1230
g3
I719
sS'from_this_person_to_poi_vs_from_messages'
p1231
F0.14705882352941177
sS'exercised_stock_options_vs_total_stock_value'
p1232
F0.6750447516706992
sg7
g8
sg9
g8
sg10
I00
sg11
g8
sg12
S'james.hughes@enron.com'
p1233
sg14
g8
sg15
g8
sS'bonus_vs_salary'
p1234
g6
sg17
I589
sg18
g8
sg19
I34
sg20
g8
sg21
g8
sS'deferral_payments_vs_total_payments'
p1235
g6
sg23
g8
sg24
I1118394
sg25
I35
sS'long_term_incentive_vs_salary'
p1236
g6
sg27
I5
sg28
I363428
sS'total_stock_value_vs_salary'
p1237
g6
sg30
g8
sg31
g8
sg32
I754966
sS'from_poi_to_this_person_vs_to_messages'
p1238
F0.048678720445062586
sS'expenses_vs_salary'
p1239
g6
ssS'REYNOLDS LAWRENCE'
p1240
(dp1241
g3
g8
sS'from_this_person_to_poi_vs_from_messages'
p1242
g6
sS'exercised_stock_options_vs_total_stock_value'
p1243
F0.9854996256416853
sg7
I51365
sg9
I8409
sg10
I00
sg11
I-200000
sg12
g8
sg14
I156250
sg15
I-140264
sS'bonus_vs_salary'
p1244
F1.3089176559902616
sg17
g8
sg18
g8
sg19
g8
sg20
I202052
sg21
g8
sS'deferral_payments_vs_total_payments'
p1245
F0.13021103998985994
sg23
I100000
sg24
I4221891
sg25
g8
sS'long_term_incentive_vs_salary'
p1246
F2.045183837484784
sg27
g8
sg28
I201483
sS'total_stock_value_vs_salary'
p1247
F55.26107671566382
sg30
I76399
sg31
I394475
sg32
I4160672
sS'from_poi_to_this_person_vs_to_messages'
p1248
g6
sS'expenses_vs_salary'
p1249
F0.1100668856922211
ssS'DIMICHELE RICHARD G'
p1250
(dp1251
g3
g8
sS'from_this_person_to_poi_vs_from_messages'
p1252
g6
sS'exercised_stock_options_vs_total_stock_value'
p1253
F0.9848484848484849
sg7
g8
sg9
I35812
sg10
I00
sg11
g8
sg12
S'richard.dimichele@enron.com'
p1254
sg14
I694862
sg15
g8
sS'bonus_vs_salary'
p1255
F3.8053487982708494
sg17
g8
sg18
g8
sg19
g8
sg20
I374689
sg21
g8
sS'deferral_payments_vs_total_payments'
p1256
g6
sg23
I1000000
sg24
I8317782
sg25
g8
sS'long_term_incentive_vs_salary'
p1257
F2.644192276664079
sg27
g8
sg28
I126027
sS'total_stock_value_vs_salary'
p1258
F31.652061737978904
sg30
I262788
sg31
I2368151
sg32
I8191755
sS'from_poi_to_this_person_vs_to_messages'
p1259
g6
sS'expenses_vs_salary'
p1260
F0.13627715116367567
ssS'BHATNAGAR SANJAY'
p1261
(dp1262
g3
I523
sS'from_this_person_to_poi_vs_from_messages'
p1263
F0.034482758620689655
sS'exercised_stock_options_vs_total_stock_value'
p1264
g6
sg7
g8
sg9
g8
sg10
I00
sg11
g8
sg12
S'sanjay.bhatnagar@enron.com'
p1265
sg14
g8
sg15
I15456290
sS'bonus_vs_salary'
p1266
g6
sg17
I463
sg18
g8
sg19
I29
sg20
I137864
sg21
I137864
sS'deferral_payments_vs_total_payments'
p1267
g6
sg23
g8
sS'total_stock_value'
p1268
S'NaN'
p1269
sg25
I0
sS'long_term_incentive_vs_salary'
p1270
g6
sg27
I1
sg28
I-2604490
sS'total_stock_value_vs_salary'
p1271
g6
sg30
g8
sg31
I15456290
sg32
I2604490
sS'from_poi_to_this_person_vs_to_messages'
p1272
F0.0
sS'expenses_vs_salary'
p1273
g6
ssS'CARTER REBECCA C'
p1274
(dp1275
g3
I312
sS'from_this_person_to_poi_vs_from_messages'
p1276
F0.4666666666666667
sS'exercised_stock_options_vs_total_stock_value'
p1277
g6
sg7
g8
sg9
g8
sg10
I00
sg11
I-159792
sg12
S'rebecca.carter@enron.com'
p1278
sg14
I75000
sg15
I-307301
sS'bonus_vs_salary'
p1279
F1.14587351848103
sg17
I196
sg18
g8
sg19
I15
sg20
I540
sg21
g8
sS'deferral_payments_vs_total_payments'
p1280
g6
sg23
I300000
sg24
g8
sg25
I29
sS'long_term_incentive_vs_salary'
p1281
F0.2864683796202575
sg27
I7
sg28
I307301
sS'total_stock_value_vs_salary'
p1282
g6
sg30
I261809
sg31
I477557
sg32
g8
sS'from_poi_to_this_person_vs_to_messages'
p1283
F0.09294871794871795
sS'expenses_vs_salary'
p1284
g6
ssS'BUCHANAN HAROLD G'
p1285
(dp1286
g3
I1088
sS'from_this_person_to_poi_vs_from_messages'
p1287
F0.0
sS'exercised_stock_options_vs_total_stock_value'
p1288
F0.8136618350821336
sg7
g8
sg9
I600
sg10
I00
sg11
g8
sg12
S'john.buchanan@enron.com'
p1289
sg14
I304805
sg15
g8
sS'bonus_vs_salary'
p1290
F2.015990839337626
sg17
I23
sg18
g8
sg19
I125
sg20
I1215
sg21
g8
sS'deferral_payments_vs_total_payments'
p1291
g6
sg23
I500000
sg24
I1014505
sg25
I0
sS'long_term_incentive_vs_salary'
p1292
F1.2289681755686102
sg27
I0
sg28
I189041
sS'total_stock_value_vs_salary'
p1293
F4.090465572924437
sg30
I248017
sg31
I1054637
sg32
I825464
sS'from_poi_to_this_person_vs_to_messages'
p1294
F0.0
sS'expenses_vs_salary'
p1295
F0.0024191890072051514
ssS'YEAP SOON'
p1296
(dp1297
g3
g8
sS'from_this_person_to_poi_vs_from_messages'
p1298
g6
sS'exercised_stock_options_vs_total_stock_value'
p1299
F1.0
sg7
g8
sg9
I55097
sg10
I00
sg11
g8
sg12
g8
sg14
g8
sg15
g8
sS'bonus_vs_salary'
p1300
g6
sg17
g8
sg18
g8
sg19
g8
sg20
g8
sg21
g8
sS'deferral_payments_vs_total_payments'
p1301
g6
sg23
g8
sg24
I192758
sg25
g8
sS'long_term_incentive_vs_salary'
p1302
g6
sg27
g8
sg28
g8
sS'total_stock_value_vs_salary'
p1303
g6
sg30
g8
sg31
I55097
sg32
I192758
sS'from_poi_to_this_person_vs_to_messages'
p1304
g6
sS'expenses_vs_salary'
p1305
g6
ssS'MURRAY JULIA H'
p1306
(dp1307
g3
I2192
sS'from_this_person_to_poi_vs_from_messages'
p1308
F0.044444444444444446
sS'exercised_stock_options_vs_total_stock_value'
p1309
F0.6702998187329382
sg7
g8
sg9
I57580
sg10
I00
sg11
g8
sg12
S'julia.murray@enron.com'
p1310
sg14
I125000
sg15
g8
sS'bonus_vs_salary'
p1311
F1.744561330053558
sg17
I395
sg18
g8
sg19
I45
sg20
I330
sg21
g8
sS'deferral_payments_vs_total_payments'
p1312
g6
sg23
I400000
sg24
I597461
sg25
I11
sS'long_term_incentive_vs_salary'
p1313
F0.5451754156417369
sg27
I2
sg28
I196983
sS'total_stock_value_vs_salary'
p1314
F2.605768392037822
sg30
I229284
sg31
I812194
sg32
I400478
sS'from_poi_to_this_person_vs_to_messages'
p1315
F0.005018248175182482
sS'expenses_vs_salary'
p1316
F0.25112960346120966
ssS'GARLAND C KEVIN'
p1317
(dp1318
g3
I209
sS'from_this_person_to_poi_vs_from_messages'
p1319
F0.6136363636363636
sS'exercised_stock_options_vs_total_stock_value'
p1320
F0.7099747476156415
sg7
g8
sg9
I48405
sg10
I00
sg11
g8
sg12
S'kevin.garland@enron.com'
p1321
sg14
I375304
sg15
g8
sS'bonus_vs_salary'
p1322
F3.6646460814155017
sg17
I178
sg18
g8
sg19
I44
sg20
I60814
sg21
g8
sS'deferral_payments_vs_total_payments'
p1323
g6
sg23
I850000
sg24
I896153
sg25
I10
sS'long_term_incentive_vs_salary'
p1324
F1.6180662740465452
sg27
I27
sg28
I259907
sS'total_stock_value_vs_salary'
p1325
F3.8636277409397013
sg30
I231946
sg31
I1566469
sg32
I636246
sS'from_poi_to_this_person_vs_to_messages'
p1326
F0.04784688995215311
sS'expenses_vs_salary'
p1327
F0.20869081596578515
ssS'DODSON KEITH'
p1328
(dp1329
g3
I176
sS'from_this_person_to_poi_vs_from_messages'
p1330
F0.21428571428571427
sS'exercised_stock_options_vs_total_stock_value'
p1331
g6
sg7
g8
sg9
I28164
sg10
I00
sg11
g8
sg12
S'keith.dodson@enron.com'
p1332
sg14
g8
sg15
g8
sS'bonus_vs_salary'
p1333
F0.3167377818400655
sg17
I114
sg18
g8
sg19
I14
sg20
I774
sg21
g8
sS'deferral_payments_vs_total_payments'
p1334
g6
sg23
I70000
sg24
g8
sg25
I10
sS'long_term_incentive_vs_salary'
p1335
g6
sg27
I3
sg28
g8
sS'total_stock_value_vs_salary'
p1336
g6
sg30
I221003
sg31
I319941
sg32
g8
sS'from_poi_to_this_person_vs_to_messages'
p1337
F0.056818181818181816
sS'expenses_vs_salary'
p1338
F0.12743718411062294
ssS'YEAGER F SCOTT'
p1339
(dp1340
g3
g8
sS'from_this_person_to_poi_vs_from_messages'
p1341
g6
sS'exercised_stock_options_vs_total_stock_value'
p1342
F0.6990930736662875
sg7
g8
sg9
I53947
sg10
I01
sg11
g8
sg12
S'scott.yeager@enron.com'
p1343
sg14
g8
sg15
g8
sS'bonus_vs_salary'
p1344
g6
sg17
g8
sg18
g8
sg19
g8
sg20
I147950
sg21
g8
sS'deferral_payments_vs_total_payments'
p1345
g6
sg23
g8
sg24
I11884758
sg25
g8
sS'long_term_incentive_vs_salary'
p1346
g6
sg27
g8
sg28
I3576206
sS'total_stock_value_vs_salary'
p1347
F75.02861688225602
sg30
I158403
sg31
I360300
sg32
I8308552
sS'from_poi_to_this_person_vs_to_messages'
p1348
g6
sS'expenses_vs_salary'
p1349
F0.3405680447971314
ssS'HIRKO JOSEPH'
p1350
(dp1351
g3
g8
sS'from_this_person_to_poi_vs_from_messages'
p1352
g6
sS'exercised_stock_options_vs_total_stock_value'
p1353
F1.0
sg7
I10259
sg9
I77978
sg10
I01
sg11
g8
sg12
S'joe.hirko@enron.com'
p1354
sg14
g8
sg15
g8
sS'bonus_vs_salary'
p1355
g6
sg17
g8
sg18
g8
sg19
g8
sg20
I2856
sg21
g8
sS'deferral_payments_vs_total_payments'
p1356
F0.1126211673783935
sg23
g8
sg24
I30766064
sg25
g8
sS'long_term_incentive_vs_salary'
p1357
g6
sg27
g8
sg28
g8
sS'total_stock_value_vs_salary'
p1358
g6
sg30
g8
sg31
I91093
sg32
I30766064
sS'from_poi_to_this_person_vs_to_messages'
p1359
g6
sS'expenses_vs_salary'
p1360
g6
ssS'DIETRICH JANET R'
p1361
(dp1362
g3
I2572
sS'from_this_person_to_poi_vs_from_messages'
p1363
F0.2222222222222222
sS'exercised_stock_options_vs_total_stock_value'
p1364
F0.8310706149364614
sg7
g8
sg9
I3475
sg10
I00
sg11
g8
sg12
S'janet.dietrich@enron.com'
p1365
sg14
I556416
sg15
g8
sS'bonus_vs_salary'
p1366
F2.3990403838464616
sg17
I1902
sg18
g8
sg19
I63
sg20
I473
sg21
g8
sS'deferral_payments_vs_total_payments'
p1367
g6
sg23
I600000
sg24
I1865087
sg25
I305
sS'long_term_incentive_vs_salary'
p1368
F2.2247740903638547
sg27
I14
sg28
I315068
sS'total_stock_value_vs_salary'
p1369
F7.457365053978409
sg30
I250100
sg31
I1410464
sg32
I1550019
sS'from_poi_to_this_person_vs_to_messages'
p1370
F0.11858475894245724
sS'expenses_vs_salary'
p1371
F0.013894442223110755
ssS'DERRICK JR. JAMES V'
p1372
(dp1373
g3
I2181
sS'from_this_person_to_poi_vs_from_messages'
p1374
F0.022002200220022004
sS'exercised_stock_options_vs_total_stock_value'
p1375
F1.0
sg7
g8
sg9
I51124
sg10
I00
sg11
I-1284000
sg12
S'james.derrick@enron.com'
p1376
sg14
I484000
sg15
I-1787380
sS'bonus_vs_salary'
p1377
F1.6247778624016247
sg17
I1401
sg18
g8
sg19
I909
sg20
I7482
sg21
g8
sS'deferral_payments_vs_total_payments'
p1378
g6
sg23
I800000
sg24
I8831913
sg25
I64
sS'long_term_incentive_vs_salary'
p1379
F0.982990606752983
sg27
I20
sg28
I1787380
sS'total_stock_value_vs_salary'
p1380
F17.9373709063214
sg30
I492375
sg31
I550981
sg32
I8831913
sS'from_poi_to_this_person_vs_to_messages'
p1381
F0.029344337459880788
sS'expenses_vs_salary'
p1382
F0.10383142929677583
ssS'FREVERT MARK A'
p1383
(dp1384
g3
I3275
sS'from_this_person_to_poi_vs_from_messages'
p1385
F0.2857142857142857
sS'exercised_stock_options_vs_total_stock_value'
p1386
F0.713540281428528
sg7
I6426990
sg9
I86987
sg10
I00
sg11
I-3367011
sg12
S'mark.frevert@enron.com'
p1387
sg14
I1617011
sg15
g8
sS'bonus_vs_salary'
p1388
F1.885134956811558
sg17
I2979
sg18
I2000000
sg19
I21
sg20
I7427621
sg21
g8
sS'deferral_payments_vs_total_payments'
p1389
F0.37252449350906797
sg23
I2000000
sg24
I14622185
sg25
I242
sS'long_term_incentive_vs_salary'
p1390
F1.5241419808244072
sg27
I6
sg28
I4188667
sS'total_stock_value_vs_salary'
p1391
F13.782396044232806
sg30
I1060932
sg31
I17252530
sg32
I10433518
sS'from_poi_to_this_person_vs_to_messages'
p1392
F0.07389312977099237
sS'expenses_vs_salary'
p1393
F0.0819911172440835
ssS'PAI LOU L'
p1394
(dp1395
g3
g8
sS'from_this_person_to_poi_vs_from_messages'
p1396
g6
sS'exercised_stock_options_vs_total_stock_value'
p1397
F0.6450672665508715
sg7
g8
sg9
I32047
sg10
I00
sg11
g8
sg12
S'lou.pai@enron.com'
p1398
sg14
g8
sg15
g8
sS'bonus_vs_salary'
p1399
F3.8185574253758414
sg17
g8
sg18
g8
sg19
g8
sg20
I1829457
sg21
g8
sS'deferral_payments_vs_total_payments'
p1400
g6
sg23
I1000000
sg24
I23817930
sg25
g8
sS'long_term_incentive_vs_salary'
p1401
g6
sg27
g8
sg28
I8453763
sS'total_stock_value_vs_salary'
p1402
F90.95013345858202
sg30
I261879
sg31
I3123383
sg32
I15364167
sS'from_poi_to_this_person_vs_to_messages'
p1403
g6
sS'expenses_vs_salary'
p1404
F0.1223733098110196
ssS'BAY FRANKLIN R'
p1405
(dp1406
g3
g8
sS'from_this_person_to_poi_vs_from_messages'
p1407
g6
sS'exercised_stock_options_vs_total_stock_value'
p1408
g6
sg7
I260455
sg9
I129142
sg10
I00
sg11
I-201641
sg12
S'frank.bay@enron.com'
p1409
sg14
g8
sg15
I-82782
sS'bonus_vs_salary'
p1410
F1.6689545251615756
sg17
g8
sg18
g8
sg19
g8
sg20
I69
sg21
g8
sS'deferral_payments_vs_total_payments'
p1411
F0.3146747114882759
sg23
I400000
sg24
I63014
sg25
g8
sS'long_term_incentive_vs_salary'
p1412
g6
sg27
g8
sg28
I145796
sS'total_stock_value_vs_salary'
p1413
F0.26291875112132884
sg30
I239671
sg31
I827696
sg32
g8
sS'from_poi_to_this_person_vs_to_messages'
p1414
g6
sS'expenses_vs_salary'
p1415
F0.5388303132210405
ssS'HAYSLETT RODERICK J'
p1416
(dp1417
g3
I2649
sS'from_this_person_to_poi_vs_from_messages'
p1418
F0.03581526861451461
sS'exercised_stock_options_vs_total_stock_value'
p1419
g6
sg7
g8
sg9
g8
sg10
I00
sg11
g8
sg12
S'rod.hayslett@enron.com'
p1420
sg14
g8
sg15
g8
sS'bonus_vs_salary'
p1421
g6
sg17
I571
sg18
g8
sg19
I1061
sg20
g8
sg21
g8
sS'deferral_payments_vs_total_payments'
p1422
g6
sg23
g8
sg24
I346663
sg25
I35
sS'long_term_incentive_vs_salary'
p1423
g6
sg27
I38
sg28
I346663
sS'total_stock_value_vs_salary'
p1424
g6
sg30
g8
sg31
g8
sg32
g8
sS'from_poi_to_this_person_vs_to_messages'
p1425
F0.01321253303133258
sS'expenses_vs_salary'
p1426
g6
ssS'FUGH JOHN L'
p1427
(dp1428
g3
g8
sS'from_this_person_to_poi_vs_from_messages'
p1429
g6
sS'exercised_stock_options_vs_total_stock_value'
p1430
F1.0
sg7
I50591
sg9
g8
sg10
I00
sg11
g8
sg12
g8
sg14
g8
sg15
g8
sS'bonus_vs_salary'
p1431
g6
sg17
g8
sg18
g8
sg19
g8
sg20
g8
sg21
g8
sS'deferral_payments_vs_total_payments'
p1432
F1.0
sg23
g8
sg24
I176378
sg25
g8
sS'long_term_incentive_vs_salary'
p1433
g6
sg27
g8
sg28
g8
sS'total_stock_value_vs_salary'
p1434
g6
sg30
g8
sg31
I50591
sg32
I176378
sS'from_poi_to_this_person_vs_to_messages'
p1435
g6
sS'expenses_vs_salary'
p1436
g6
ssS'FALLON JAMES B'
p1437
(dp1438
g3
I1755
sS'from_this_person_to_poi_vs_from_messages'
p1439
F0.49333333333333335
sS'exercised_stock_options_vs_total_stock_value'
p1440
F0.40312870996771993
sg7
g8
sg9
I95924
sg10
I00
sg11
g8
sg12
S'jim.fallon@enron.com'
p1441
sg14
I374347
sg15
g8
sS'bonus_vs_salary'
p1442
F8.207808580771403
sg17
I1604
sg18
g8
sg19
I75
sg20
I401481
sg21
g8
sS'deferral_payments_vs_total_payments'
p1443
g6
sg23
I2500000
sg24
I2332399
sg25
I42
sS'long_term_incentive_vs_salary'
p1444
F1.229027407514413
sg27
I37
sg28
I1392142
sS'total_stock_value_vs_salary'
p1445
F7.657553810393056
sg30
I304588
sg31
I3676340
sg32
I940257
sS'from_poi_to_this_person_vs_to_messages'
p1446
F0.023931623931623933
sS'expenses_vs_salary'
p1447
F0.31493033212076643
ssS'KOENIG MARK E'
p1448
(dp1449
g3
I2374
sS'from_this_person_to_poi_vs_from_messages'
p1450
F0.2459016393442623
sS'exercised_stock_options_vs_total_stock_value'
p1451
F0.3498529990026327
sg7
g8
sg9
I127017
sg10
I01
sg11
g8
sg12
S'mark.koenig@enron.com'
p1452
sg14
I300000
sg15
g8
sS'bonus_vs_salary'
p1453
F2.2584579249288588
sg17
I2271
sg18
g8
sg19
I61
sg20
I150458
sg21
g8
sS'deferral_payments_vs_total_payments'
p1454
g6
sg23
I700000
sg24
I1920055
sg25
I53
sS'long_term_incentive_vs_salary'
p1455
F0.9679105392552251
sg27
I15
sg28
I1248318
sS'total_stock_value_vs_salary'
p1456
F6.194804901498971
sg30
I309946
sg31
I1587421
sg32
I671737
sS'from_poi_to_this_person_vs_to_messages'
p1457
F0.02232518955349621
sS'expenses_vs_salary'
p1458
F0.40980364321526974
ssS'SAVAGE FRANK'
p1459
(dp1460
g3
g8
sS'from_this_person_to_poi_vs_from_messages'
p1461
g6
sS'exercised_stock_options_vs_total_stock_value'
p1462
g6
sg7
g8
sg9
g8
sg10
I00
sg11
I-121284
sg12
g8
sg14
g8
sg15
g8
sS'bonus_vs_salary'
p1463
g6
sg17
g8
sg18
g8
sg19
g8
sg20
g8
sg21
I125034
sS'deferral_payments_vs_total_payments'
p1464
g6
sg23
g8
sg24
g8
sg25
g8
sS'long_term_incentive_vs_salary'
p1465
g6
sg27
g8
sg28
g8
sS'total_stock_value_vs_salary'
p1466
g6
sg30
g8
sg31
I3750
sg32
g8
sS'from_poi_to_this_person_vs_to_messages'
p1467
g6
sS'expenses_vs_salary'
p1468
g6
ssS'IZZO LAWRENCE L'
p1469
(dp1470
g3
I496
sS'from_this_person_to_poi_vs_from_messages'
p1471
F0.2631578947368421
sS'exercised_stock_options_vs_total_stock_value'
p1472
F0.3720239588452194
sg7
g8
sg9
I28093
sg10
I00
sg11
g8
sg12
S'larry.izzo@enron.com'
p1473
sg14
I312500
sg15
g8
sS'bonus_vs_salary'
p1474
g6
sg17
I437
sg18
g8
sg19
I19
sg20
I1553729
sg21
g8
sS'deferral_payments_vs_total_payments'
p1475
g6
sg23
g8
sg24
I5819980
sg25
I28
sS'long_term_incentive_vs_salary'
p1476
F3.6646574571381665
sg27
I5
sg28
I3654808
sS'total_stock_value_vs_salary'
p1477
F68.25034594366396
sg30
I85274
sg31
I1979596
sg32
I2165172
sS'from_poi_to_this_person_vs_to_messages'
p1478
F0.056451612903225805
sS'expenses_vs_salary'
p1479
F0.329443910218824
ssS'TILNEY ELIZABETH A'
p1480
(dp1481
g3
I460
sS'from_this_person_to_poi_vs_from_messages'
p1482
F0.5789473684210527
sS'exercised_stock_options_vs_total_stock_value'
p1483
F0.5061889897794771
sg7
g8
sg9
g8
sg10
I00
sg11
I-575000
sg12
S'elizabeth.tilney@enron.com'
p1484
sg14
I275000
sg15
g8
sS'bonus_vs_salary'
p1485
F1.2129151201998885
sg17
I379
sg18
g8
sg19
I19
sg20
I152055
sg21
g8
sS'deferral_payments_vs_total_payments'
p1486
g6
sg23
I300000
sg24
I1168042
sg25
I10
sS'long_term_incentive_vs_salary'
p1487
F1.111838860183231
sg27
I11
sg28
I576792
sS'total_stock_value_vs_salary'
p1488
F4.7224526760950605
sg30
I247338
sg31
I399393
sg32
I591250
sS'from_poi_to_this_person_vs_to_messages'
p1489
F0.021739130434782608
sS'expenses_vs_salary'
p1490
g6
ssS'MARTIN AMANDA K'
p1491
(dp1492
g3
I1522
sS'from_this_person_to_poi_vs_from_messages'
p1493
F0.0
sS'exercised_stock_options_vs_total_stock_value'
p1494
F1.0
sg7
I85430
sg9
I8211
sg10
I00
sg11
g8
sg12
S'a..martin@enron.com'
p1495
sg14
I5145434
sg15
g8
sS'bonus_vs_salary'
p1496
g6
sg17
I477
sg18
g8
sg19
I230
sg20
I2818454
sg21
g8
sS'deferral_payments_vs_total_payments'
p1497
F0.010161750614010964
sg23
g8
sg24
I2070306
sg25
I8
sS'long_term_incentive_vs_salary'
p1498
F14.72281944678915
sg27
I0
sg28
g8
sS'total_stock_value_vs_salary'
p1499
F5.923842660814279
sg30
I349487
sg31
I8407016
sg32
I2070306
sS'from_poi_to_this_person_vs_to_messages'
p1500
F0.005256241787122208
sS'expenses_vs_salary'
p1501
F0.023494436130671526
ssS'BUY RICHARD B'
p1502
(dp1503
g3
I3523
sS'from_this_person_to_poi_vs_from_messages'
p1504
F0.06742640075973409
sS'exercised_stock_options_vs_total_stock_value'
p1505
F0.7382305550636237
sg7
I649584
sg9
g8
sg10
I00
sg11
I-694862
sg12
S'rick.buy@enron.com'
p1506
sg14
I769862
sg15
g8
sS'bonus_vs_salary'
p1507
F2.722767784211577
sg17
I2333
sg18
g8
sg19
I1053
sg20
I400572
sg21
g8
sS'deferral_payments_vs_total_payments'
p1508
F0.27574964914917083
sg23
I900000
sg24
I3444470
sg25
I156
sS'long_term_incentive_vs_salary'
p1509
F2.3290616132096593
sg27
I71
sg28
I901657
sS'total_stock_value_vs_salary'
p1510
F10.420546610759168
sg30
I330546
sg31
I2355702
sg32
I2542813
sS'from_poi_to_this_person_vs_to_messages'
p1511
F0.04428044280442804
sS'expenses_vs_salary'
p1512
g6
ssS'GRAMM WENDY L'
p1513
(dp1514
g3
g8
sS'from_this_person_to_poi_vs_from_messages'
p1515
g6
sS'exercised_stock_options_vs_total_stock_value'
p1516
g6
sg7
g8
sg9
g8
sg10
I00
sg11
g8
sg12
g8
sg14
g8
sg15
g8
sS'bonus_vs_salary'
p1517
g6
sg17
g8
sg18
g8
sg19
g8
sg20
g8
sg21
I119292
sS'deferral_payments_vs_total_payments'
p1518
g6
sg23
g8
sg24
g8
sg25
g8
sS'long_term_incentive_vs_salary'
p1519
g6
sg27
g8
sg28
g8
sS'total_stock_value_vs_salary'
p1520
g6
sg30
g8
sg31
I119292
sg32
g8
sS'from_poi_to_this_person_vs_to_messages'
p1521
g6
sS'expenses_vs_salary'
p1522
g6
ssS'CAUSEY RICHARD A'
p1523
(dp1524
g3
I1892
sS'from_this_person_to_poi_vs_from_messages'
p1525
F0.24489795918367346
sS'exercised_stock_options_vs_total_stock_value'
p1526
g6
sg7
g8
sg9
I30674
sg10
I01
sg11
I-235000
sg12
S'richard.causey@enron.com'
p1527
sg14
I350000
sg15
g8
sS'bonus_vs_salary'
p1528
F2.4085416521150607
sg17
I1585
sg18
g8
sg19
I49
sg20
I307895
sg21
g8
sS'deferral_payments_vs_total_payments'
p1529
g6
sg23
I1000000
sg24
I2502063
sg25
I58
sS'long_term_incentive_vs_salary'
p1530
F0.8429895782402713
sg27
I12
sg28
I2502063
sS'total_stock_value_vs_salary'
p1531
F6.026322951715965
sg30
I415189
sg31
I1868758
sg32
g8
sS'from_poi_to_this_person_vs_to_messages'
p1532
F0.0306553911205074
sS'expenses_vs_salary'
p1533
F0.07387960663697737
ssS'TAYLOR MITCHELL S'
p1534
(dp1535
g3
I533
sS'from_this_person_to_poi_vs_from_messages'
p1536
F0.0
sS'exercised_stock_options_vs_total_stock_value'
p1537
F0.849455067064561
sg7
I227449
sg9
g8
sg10
I00
sg11
g8
sg12
S'mitchell.taylor@enron.com'
p1538
sg14
g8
sg15
g8
sS'bonus_vs_salary'
p1539
F2.2623240100447184
sg17
I300
sg18
g8
sg19
I29
sg20
g8
sg21
g8
sS'deferral_payments_vs_total_payments'
p1540
F0.20816024702950497
sg23
I600000
sg24
I3745048
sg25
I0
sS'long_term_incentive_vs_salary'
p1541
g6
sg27
I0
sg28
I563798
sS'total_stock_value_vs_salary'
p1542
F14.120853348616588
sg30
I265214
sg31
I1092663
sg32
I3181250
sS'from_poi_to_this_person_vs_to_messages'
p1543
F0.0
sS'expenses_vs_salary'
p1544
g6
ssS'DONAHUE JR JEFFREY M'
p1545
(dp1546
g3
I865
sS'from_this_person_to_poi_vs_from_messages'
p1547
F0.5
sS'exercised_stock_options_vs_total_stock_value'
p1548
F0.7085370050361336
sg7
g8
sg9
I96268
sg10
I00
sg11
I-300000
sg12
S'jeff.donahue@enron.com'
p1549
sg14
g8
sg15
g8
sS'bonus_vs_salary'
p1550
F2.8714900520816506
sg17
I772
sg18
g8
sg19
I22
sg20
I891
sg21
g8
sS'deferral_payments_vs_total_payments'
p1551
g6
sg23
I800000
sg24
I1080988
sg25
I188
sS'long_term_incentive_vs_salary'
p1552
g6
sg27
I11
sg28
I315068
sS'total_stock_value_vs_salary'
p1553
F3.8800578605245493
sg30
I278601
sg31
I875760
sg32
I765920
sS'from_poi_to_this_person_vs_to_messages'
p1554
F0.21734104046242775
sS'expenses_vs_salary'
p1555
F0.34554075541724544
ssS'GLISAN JR BEN F'
p1556
(dp1557
g3
I873
sS'from_this_person_to_poi_vs_from_messages'
p1558
F0.375
sS'exercised_stock_options_vs_total_stock_value'
p1559
F0.49416219465516487
sg7
g8
sg9
I125978
sg10
I01
sg11
g8
sg12
S'ben.glisan@enron.com'
p1560
sg14
I71023
sg15
g8
sS'bonus_vs_salary'
p1561
F2.1820165469588146
sg17
I874
sg18
g8
sg19
I16
sg20
I200308
sg21
g8
sS'deferral_payments_vs_total_payments'
p1562
g6
sg23
I600000
sg24
I778546
sg25
I52
sS'long_term_incentive_vs_salary'
p1563
F0.2582889353577598
sg27
I6
sg28
I393818
sS'total_stock_value_vs_salary'
p1564
F2.8313337576143285
sg30
I274975
sg31
I1272284
sg32
I384728
sS'from_poi_to_this_person_vs_to_messages'
p1565
F0.05956471935853379
sS'expenses_vs_salary'
p1566
F0.45814346758796254
ss.